ARM GAS  C:\Users\lukas\AppData\Local\Temp\ccFZ7lQg.s 			page 1


   1              		.cpu cortex-m4
   2              		.arch armv7e-m
   3              		.fpu fpv4-sp-d16
   4              		.eabi_attribute 27, 1
   5              		.eabi_attribute 28, 1
   6              		.eabi_attribute 20, 1
   7              		.eabi_attribute 21, 1
   8              		.eabi_attribute 23, 3
   9              		.eabi_attribute 24, 1
  10              		.eabi_attribute 25, 1
  11              		.eabi_attribute 26, 1
  12              		.eabi_attribute 30, 1
  13              		.eabi_attribute 34, 1
  14              		.eabi_attribute 18, 4
  15              		.file	"main.c"
  16              		.text
  17              	.Ltext0:
  18              		.cfi_sections	.debug_frame
  19              		.section	.text.MX_GPIO_Init,"ax",%progbits
  20              		.align	1
  21              		.syntax unified
  22              		.thumb
  23              		.thumb_func
  25              	MX_GPIO_Init:
  26              	.LFB143:
  27              		.file 1 "Core/Src/main.c"
   1:Core/Src/main.c **** /* USER CODE BEGIN Header */
   2:Core/Src/main.c **** /**
   3:Core/Src/main.c ****   ******************************************************************************
   4:Core/Src/main.c ****   * @file           : main.c
   5:Core/Src/main.c ****   * @brief          : Main program body
   6:Core/Src/main.c ****   ******************************************************************************
   7:Core/Src/main.c ****   * @attention
   8:Core/Src/main.c ****   *
   9:Core/Src/main.c ****   * Copyright (c) 2023 STMicroelectronics.
  10:Core/Src/main.c ****   * All rights reserved.
  11:Core/Src/main.c ****   *
  12:Core/Src/main.c ****   * This software is licensed under terms that can be found in the LICENSE file
  13:Core/Src/main.c ****   * in the root directory of this software component.
  14:Core/Src/main.c ****   * If no LICENSE file comes with this software, it is provided AS-IS.
  15:Core/Src/main.c ****   *
  16:Core/Src/main.c ****   ******************************************************************************
  17:Core/Src/main.c ****   */
  18:Core/Src/main.c **** /* USER CODE END Header */
  19:Core/Src/main.c **** /* Includes ------------------------------------------------------------------*/
  20:Core/Src/main.c **** #include "main.h"
  21:Core/Src/main.c **** #include "usb_device.h"
  22:Core/Src/main.c **** 
  23:Core/Src/main.c **** /* Private includes ----------------------------------------------------------*/
  24:Core/Src/main.c **** /* USER CODE BEGIN Includes */
  25:Core/Src/main.c **** 
  26:Core/Src/main.c **** /* USER CODE END Includes */
  27:Core/Src/main.c **** 
  28:Core/Src/main.c **** /* Private typedef -----------------------------------------------------------*/
  29:Core/Src/main.c **** /* USER CODE BEGIN PTD */
  30:Core/Src/main.c **** 
  31:Core/Src/main.c **** /* USER CODE END PTD */
ARM GAS  C:\Users\lukas\AppData\Local\Temp\ccFZ7lQg.s 			page 2


  32:Core/Src/main.c **** 
  33:Core/Src/main.c **** /* Private define ------------------------------------------------------------*/
  34:Core/Src/main.c **** /* USER CODE BEGIN PD */
  35:Core/Src/main.c **** 
  36:Core/Src/main.c **** /* USER CODE END PD */
  37:Core/Src/main.c **** 
  38:Core/Src/main.c **** /* Private macro -------------------------------------------------------------*/
  39:Core/Src/main.c **** /* USER CODE BEGIN PM */
  40:Core/Src/main.c **** 
  41:Core/Src/main.c **** /* USER CODE END PM */
  42:Core/Src/main.c **** 
  43:Core/Src/main.c **** /* Private variables ---------------------------------------------------------*/
  44:Core/Src/main.c **** I2C_HandleTypeDef hi2c1;
  45:Core/Src/main.c **** 
  46:Core/Src/main.c **** SD_HandleTypeDef hsd;
  47:Core/Src/main.c **** 
  48:Core/Src/main.c **** TIM_HandleTypeDef htim2;
  49:Core/Src/main.c **** TIM_HandleTypeDef htim3;
  50:Core/Src/main.c **** TIM_HandleTypeDef htim5;
  51:Core/Src/main.c **** 
  52:Core/Src/main.c **** UART_HandleTypeDef huart1;
  53:Core/Src/main.c **** UART_HandleTypeDef huart3;
  54:Core/Src/main.c **** 
  55:Core/Src/main.c **** /* USER CODE BEGIN PV */
  56:Core/Src/main.c **** 
  57:Core/Src/main.c **** /* USER CODE END PV */
  58:Core/Src/main.c **** 
  59:Core/Src/main.c **** /* Private function prototypes -----------------------------------------------*/
  60:Core/Src/main.c **** void SystemClock_Config(void);
  61:Core/Src/main.c **** static void MX_GPIO_Init(void);
  62:Core/Src/main.c **** static void MX_I2C1_Init(void);
  63:Core/Src/main.c **** static void MX_SDIO_SD_Init(void);
  64:Core/Src/main.c **** static void MX_TIM2_Init(void);
  65:Core/Src/main.c **** static void MX_TIM3_Init(void);
  66:Core/Src/main.c **** static void MX_TIM5_Init(void);
  67:Core/Src/main.c **** static void MX_USART1_UART_Init(void);
  68:Core/Src/main.c **** static void MX_USART3_UART_Init(void);
  69:Core/Src/main.c **** /* USER CODE BEGIN PFP */
  70:Core/Src/main.c **** 
  71:Core/Src/main.c **** /* USER CODE END PFP */
  72:Core/Src/main.c **** 
  73:Core/Src/main.c **** /* Private user code ---------------------------------------------------------*/
  74:Core/Src/main.c **** /* USER CODE BEGIN 0 */
  75:Core/Src/main.c **** 
  76:Core/Src/main.c **** /* USER CODE END 0 */
  77:Core/Src/main.c **** 
  78:Core/Src/main.c **** /**
  79:Core/Src/main.c ****   * @brief  The application entry point.
  80:Core/Src/main.c ****   * @retval int
  81:Core/Src/main.c ****   */
  82:Core/Src/main.c **** int main(void)
  83:Core/Src/main.c **** {
  84:Core/Src/main.c ****   /* USER CODE BEGIN 1 */
  85:Core/Src/main.c **** 
  86:Core/Src/main.c ****   /* USER CODE END 1 */
  87:Core/Src/main.c **** 
  88:Core/Src/main.c ****   /* MCU Configuration--------------------------------------------------------*/
ARM GAS  C:\Users\lukas\AppData\Local\Temp\ccFZ7lQg.s 			page 3


  89:Core/Src/main.c **** 
  90:Core/Src/main.c ****   /* Reset of all peripherals, Initializes the Flash interface and the Systick. */
  91:Core/Src/main.c ****   HAL_Init();
  92:Core/Src/main.c **** 
  93:Core/Src/main.c ****   /* USER CODE BEGIN Init */
  94:Core/Src/main.c **** 
  95:Core/Src/main.c ****   /* USER CODE END Init */
  96:Core/Src/main.c **** 
  97:Core/Src/main.c ****   /* Configure the system clock */
  98:Core/Src/main.c ****   SystemClock_Config();
  99:Core/Src/main.c **** 
 100:Core/Src/main.c ****   /* USER CODE BEGIN SysInit */
 101:Core/Src/main.c **** 
 102:Core/Src/main.c ****   /* USER CODE END SysInit */
 103:Core/Src/main.c **** 
 104:Core/Src/main.c ****   /* Initialize all configured peripherals */
 105:Core/Src/main.c ****   MX_GPIO_Init();
 106:Core/Src/main.c ****   MX_I2C1_Init();
 107:Core/Src/main.c ****   MX_SDIO_SD_Init();
 108:Core/Src/main.c ****   MX_TIM2_Init();
 109:Core/Src/main.c ****   MX_TIM3_Init();
 110:Core/Src/main.c ****   MX_TIM5_Init();
 111:Core/Src/main.c ****   MX_USART1_UART_Init();
 112:Core/Src/main.c ****   MX_USART3_UART_Init();
 113:Core/Src/main.c ****   MX_USB_DEVICE_Init();
 114:Core/Src/main.c ****   /* USER CODE BEGIN 2 */
 115:Core/Src/main.c ****   HAL_TIM_PWM_Start(&htim3, TIM_CHANNEL_1);
 116:Core/Src/main.c ****   uint8_t intensity = 0;
 117:Core/Src/main.c ****   
 118:Core/Src/main.c ****   /* USER CODE END 2 */
 119:Core/Src/main.c **** 
 120:Core/Src/main.c ****   /* Infinite loop */
 121:Core/Src/main.c ****   /* USER CODE BEGIN WHILE */
 122:Core/Src/main.c ****   while (1)
 123:Core/Src/main.c ****   {
 124:Core/Src/main.c ****     /* USER CODE END WHILE */
 125:Core/Src/main.c ****     htim3.Instance->CCR1 = 100 - intensity;
 126:Core/Src/main.c **** 
 127:Core/Src/main.c ****     intensity += 5;
 128:Core/Src/main.c ****     if (intensity > 100) {
 129:Core/Src/main.c ****       intensity = 0;
 130:Core/Src/main.c ****     }
 131:Core/Src/main.c **** 
 132:Core/Src/main.c ****     HAL_Delay(100);
 133:Core/Src/main.c ****     /* USER CODE BEGIN 3 */
 134:Core/Src/main.c ****   }
 135:Core/Src/main.c ****   /* USER CODE END 3 */
 136:Core/Src/main.c **** }
 137:Core/Src/main.c **** 
 138:Core/Src/main.c **** /**
 139:Core/Src/main.c ****   * @brief System Clock Configuration
 140:Core/Src/main.c ****   * @retval None
 141:Core/Src/main.c ****   */
 142:Core/Src/main.c **** void SystemClock_Config(void)
 143:Core/Src/main.c **** {
 144:Core/Src/main.c ****   RCC_OscInitTypeDef RCC_OscInitStruct = {0};
 145:Core/Src/main.c ****   RCC_ClkInitTypeDef RCC_ClkInitStruct = {0};
ARM GAS  C:\Users\lukas\AppData\Local\Temp\ccFZ7lQg.s 			page 4


 146:Core/Src/main.c **** 
 147:Core/Src/main.c ****   /** Configure the main internal regulator output voltage
 148:Core/Src/main.c ****   */
 149:Core/Src/main.c ****   __HAL_RCC_PWR_CLK_ENABLE();
 150:Core/Src/main.c ****   __HAL_PWR_VOLTAGESCALING_CONFIG(PWR_REGULATOR_VOLTAGE_SCALE1);
 151:Core/Src/main.c **** 
 152:Core/Src/main.c ****   /** Initializes the RCC Oscillators according to the specified parameters
 153:Core/Src/main.c ****   * in the RCC_OscInitTypeDef structure.
 154:Core/Src/main.c ****   */
 155:Core/Src/main.c ****   RCC_OscInitStruct.OscillatorType = RCC_OSCILLATORTYPE_HSE;
 156:Core/Src/main.c ****   RCC_OscInitStruct.HSEState = RCC_HSE_ON;
 157:Core/Src/main.c ****   RCC_OscInitStruct.PLL.PLLState = RCC_PLL_ON;
 158:Core/Src/main.c ****   RCC_OscInitStruct.PLL.PLLSource = RCC_PLLSOURCE_HSE;
 159:Core/Src/main.c ****   RCC_OscInitStruct.PLL.PLLM = 8;
 160:Core/Src/main.c ****   RCC_OscInitStruct.PLL.PLLN = 168;
 161:Core/Src/main.c ****   RCC_OscInitStruct.PLL.PLLP = RCC_PLLP_DIV2;
 162:Core/Src/main.c ****   RCC_OscInitStruct.PLL.PLLQ = 7;
 163:Core/Src/main.c ****   if (HAL_RCC_OscConfig(&RCC_OscInitStruct) != HAL_OK)
 164:Core/Src/main.c ****   {
 165:Core/Src/main.c ****     Error_Handler();
 166:Core/Src/main.c ****   }
 167:Core/Src/main.c **** 
 168:Core/Src/main.c ****   /** Initializes the CPU, AHB and APB buses clocks
 169:Core/Src/main.c ****   */
 170:Core/Src/main.c ****   RCC_ClkInitStruct.ClockType = RCC_CLOCKTYPE_HCLK|RCC_CLOCKTYPE_SYSCLK
 171:Core/Src/main.c ****                               |RCC_CLOCKTYPE_PCLK1|RCC_CLOCKTYPE_PCLK2;
 172:Core/Src/main.c ****   RCC_ClkInitStruct.SYSCLKSource = RCC_SYSCLKSOURCE_PLLCLK;
 173:Core/Src/main.c ****   RCC_ClkInitStruct.AHBCLKDivider = RCC_SYSCLK_DIV1;
 174:Core/Src/main.c ****   RCC_ClkInitStruct.APB1CLKDivider = RCC_HCLK_DIV4;
 175:Core/Src/main.c ****   RCC_ClkInitStruct.APB2CLKDivider = RCC_HCLK_DIV2;
 176:Core/Src/main.c **** 
 177:Core/Src/main.c ****   if (HAL_RCC_ClockConfig(&RCC_ClkInitStruct, FLASH_LATENCY_5) != HAL_OK)
 178:Core/Src/main.c ****   {
 179:Core/Src/main.c ****     Error_Handler();
 180:Core/Src/main.c ****   }
 181:Core/Src/main.c **** }
 182:Core/Src/main.c **** 
 183:Core/Src/main.c **** /**
 184:Core/Src/main.c ****   * @brief I2C1 Initialization Function
 185:Core/Src/main.c ****   * @param None
 186:Core/Src/main.c ****   * @retval None
 187:Core/Src/main.c ****   */
 188:Core/Src/main.c **** static void MX_I2C1_Init(void)
 189:Core/Src/main.c **** {
 190:Core/Src/main.c **** 
 191:Core/Src/main.c ****   /* USER CODE BEGIN I2C1_Init 0 */
 192:Core/Src/main.c **** 
 193:Core/Src/main.c ****   /* USER CODE END I2C1_Init 0 */
 194:Core/Src/main.c **** 
 195:Core/Src/main.c ****   /* USER CODE BEGIN I2C1_Init 1 */
 196:Core/Src/main.c **** 
 197:Core/Src/main.c ****   /* USER CODE END I2C1_Init 1 */
 198:Core/Src/main.c ****   hi2c1.Instance = I2C1;
 199:Core/Src/main.c ****   hi2c1.Init.ClockSpeed = 100000;
 200:Core/Src/main.c ****   hi2c1.Init.DutyCycle = I2C_DUTYCYCLE_2;
 201:Core/Src/main.c ****   hi2c1.Init.OwnAddress1 = 0;
 202:Core/Src/main.c ****   hi2c1.Init.AddressingMode = I2C_ADDRESSINGMODE_7BIT;
ARM GAS  C:\Users\lukas\AppData\Local\Temp\ccFZ7lQg.s 			page 5


 203:Core/Src/main.c ****   hi2c1.Init.DualAddressMode = I2C_DUALADDRESS_DISABLE;
 204:Core/Src/main.c ****   hi2c1.Init.OwnAddress2 = 0;
 205:Core/Src/main.c ****   hi2c1.Init.GeneralCallMode = I2C_GENERALCALL_DISABLE;
 206:Core/Src/main.c ****   hi2c1.Init.NoStretchMode = I2C_NOSTRETCH_DISABLE;
 207:Core/Src/main.c ****   if (HAL_I2C_Init(&hi2c1) != HAL_OK)
 208:Core/Src/main.c ****   {
 209:Core/Src/main.c ****     Error_Handler();
 210:Core/Src/main.c ****   }
 211:Core/Src/main.c ****   /* USER CODE BEGIN I2C1_Init 2 */
 212:Core/Src/main.c **** 
 213:Core/Src/main.c ****   /* USER CODE END I2C1_Init 2 */
 214:Core/Src/main.c **** 
 215:Core/Src/main.c **** }
 216:Core/Src/main.c **** 
 217:Core/Src/main.c **** /**
 218:Core/Src/main.c ****   * @brief SDIO Initialization Function
 219:Core/Src/main.c ****   * @param None
 220:Core/Src/main.c ****   * @retval None
 221:Core/Src/main.c ****   */
 222:Core/Src/main.c **** static void MX_SDIO_SD_Init(void)
 223:Core/Src/main.c **** {
 224:Core/Src/main.c **** 
 225:Core/Src/main.c ****   /* USER CODE BEGIN SDIO_Init 0 */
 226:Core/Src/main.c **** 
 227:Core/Src/main.c ****   /* USER CODE END SDIO_Init 0 */
 228:Core/Src/main.c **** 
 229:Core/Src/main.c ****   /* USER CODE BEGIN SDIO_Init 1 */
 230:Core/Src/main.c **** 
 231:Core/Src/main.c ****   /* USER CODE END SDIO_Init 1 */
 232:Core/Src/main.c ****   hsd.Instance = SDIO;
 233:Core/Src/main.c ****   hsd.Init.ClockEdge = SDIO_CLOCK_EDGE_RISING;
 234:Core/Src/main.c ****   hsd.Init.ClockBypass = SDIO_CLOCK_BYPASS_DISABLE;
 235:Core/Src/main.c ****   hsd.Init.ClockPowerSave = SDIO_CLOCK_POWER_SAVE_DISABLE;
 236:Core/Src/main.c ****   hsd.Init.BusWide = SDIO_BUS_WIDE_4B;
 237:Core/Src/main.c ****   hsd.Init.HardwareFlowControl = SDIO_HARDWARE_FLOW_CONTROL_DISABLE;
 238:Core/Src/main.c ****   hsd.Init.ClockDiv = 0;
 239:Core/Src/main.c ****   if (HAL_SD_Init(&hsd) != HAL_OK)
 240:Core/Src/main.c ****   {
 241:Core/Src/main.c ****     Error_Handler();
 242:Core/Src/main.c ****   }
 243:Core/Src/main.c ****   if (HAL_SD_ConfigWideBusOperation(&hsd, SDIO_BUS_WIDE_4B) != HAL_OK)
 244:Core/Src/main.c ****   {
 245:Core/Src/main.c ****     Error_Handler();
 246:Core/Src/main.c ****   }
 247:Core/Src/main.c ****   /* USER CODE BEGIN SDIO_Init 2 */
 248:Core/Src/main.c **** 
 249:Core/Src/main.c ****   /* USER CODE END SDIO_Init 2 */
 250:Core/Src/main.c **** 
 251:Core/Src/main.c **** }
 252:Core/Src/main.c **** 
 253:Core/Src/main.c **** /**
 254:Core/Src/main.c ****   * @brief TIM2 Initialization Function
 255:Core/Src/main.c ****   * @param None
 256:Core/Src/main.c ****   * @retval None
 257:Core/Src/main.c ****   */
 258:Core/Src/main.c **** static void MX_TIM2_Init(void)
 259:Core/Src/main.c **** {
ARM GAS  C:\Users\lukas\AppData\Local\Temp\ccFZ7lQg.s 			page 6


 260:Core/Src/main.c **** 
 261:Core/Src/main.c ****   /* USER CODE BEGIN TIM2_Init 0 */
 262:Core/Src/main.c **** 
 263:Core/Src/main.c ****   /* USER CODE END TIM2_Init 0 */
 264:Core/Src/main.c **** 
 265:Core/Src/main.c ****   TIM_ClockConfigTypeDef sClockSourceConfig = {0};
 266:Core/Src/main.c ****   TIM_MasterConfigTypeDef sMasterConfig = {0};
 267:Core/Src/main.c ****   TIM_OC_InitTypeDef sConfigOC = {0};
 268:Core/Src/main.c **** 
 269:Core/Src/main.c ****   /* USER CODE BEGIN TIM2_Init 1 */
 270:Core/Src/main.c **** 
 271:Core/Src/main.c ****   /* USER CODE END TIM2_Init 1 */
 272:Core/Src/main.c ****   htim2.Instance = TIM2;
 273:Core/Src/main.c ****   htim2.Init.Prescaler = 8400-1;
 274:Core/Src/main.c ****   htim2.Init.CounterMode = TIM_COUNTERMODE_UP;
 275:Core/Src/main.c ****   htim2.Init.Period = 100-1;
 276:Core/Src/main.c ****   htim2.Init.ClockDivision = TIM_CLOCKDIVISION_DIV1;
 277:Core/Src/main.c ****   htim2.Init.AutoReloadPreload = TIM_AUTORELOAD_PRELOAD_DISABLE;
 278:Core/Src/main.c ****   if (HAL_TIM_Base_Init(&htim2) != HAL_OK)
 279:Core/Src/main.c ****   {
 280:Core/Src/main.c ****     Error_Handler();
 281:Core/Src/main.c ****   }
 282:Core/Src/main.c ****   sClockSourceConfig.ClockSource = TIM_CLOCKSOURCE_INTERNAL;
 283:Core/Src/main.c ****   if (HAL_TIM_ConfigClockSource(&htim2, &sClockSourceConfig) != HAL_OK)
 284:Core/Src/main.c ****   {
 285:Core/Src/main.c ****     Error_Handler();
 286:Core/Src/main.c ****   }
 287:Core/Src/main.c ****   if (HAL_TIM_PWM_Init(&htim2) != HAL_OK)
 288:Core/Src/main.c ****   {
 289:Core/Src/main.c ****     Error_Handler();
 290:Core/Src/main.c ****   }
 291:Core/Src/main.c ****   sMasterConfig.MasterOutputTrigger = TIM_TRGO_RESET;
 292:Core/Src/main.c ****   sMasterConfig.MasterSlaveMode = TIM_MASTERSLAVEMODE_DISABLE;
 293:Core/Src/main.c ****   if (HAL_TIMEx_MasterConfigSynchronization(&htim2, &sMasterConfig) != HAL_OK)
 294:Core/Src/main.c ****   {
 295:Core/Src/main.c ****     Error_Handler();
 296:Core/Src/main.c ****   }
 297:Core/Src/main.c ****   sConfigOC.OCMode = TIM_OCMODE_PWM1;
 298:Core/Src/main.c ****   sConfigOC.Pulse = 0;
 299:Core/Src/main.c ****   sConfigOC.OCPolarity = TIM_OCPOLARITY_HIGH;
 300:Core/Src/main.c ****   sConfigOC.OCFastMode = TIM_OCFAST_DISABLE;
 301:Core/Src/main.c ****   if (HAL_TIM_PWM_ConfigChannel(&htim2, &sConfigOC, TIM_CHANNEL_1) != HAL_OK)
 302:Core/Src/main.c ****   {
 303:Core/Src/main.c ****     Error_Handler();
 304:Core/Src/main.c ****   }
 305:Core/Src/main.c ****   /* USER CODE BEGIN TIM2_Init 2 */
 306:Core/Src/main.c **** 
 307:Core/Src/main.c ****   /* USER CODE END TIM2_Init 2 */
 308:Core/Src/main.c ****   HAL_TIM_MspPostInit(&htim2);
 309:Core/Src/main.c **** 
 310:Core/Src/main.c **** }
 311:Core/Src/main.c **** 
 312:Core/Src/main.c **** /**
 313:Core/Src/main.c ****   * @brief TIM3 Initialization Function
 314:Core/Src/main.c ****   * @param None
 315:Core/Src/main.c ****   * @retval None
 316:Core/Src/main.c ****   */
ARM GAS  C:\Users\lukas\AppData\Local\Temp\ccFZ7lQg.s 			page 7


 317:Core/Src/main.c **** static void MX_TIM3_Init(void)
 318:Core/Src/main.c **** {
 319:Core/Src/main.c **** 
 320:Core/Src/main.c ****   /* USER CODE BEGIN TIM3_Init 0 */
 321:Core/Src/main.c **** 
 322:Core/Src/main.c ****   /* USER CODE END TIM3_Init 0 */
 323:Core/Src/main.c **** 
 324:Core/Src/main.c ****   TIM_ClockConfigTypeDef sClockSourceConfig = {0};
 325:Core/Src/main.c ****   TIM_MasterConfigTypeDef sMasterConfig = {0};
 326:Core/Src/main.c ****   TIM_OC_InitTypeDef sConfigOC = {0};
 327:Core/Src/main.c **** 
 328:Core/Src/main.c ****   /* USER CODE BEGIN TIM3_Init 1 */
 329:Core/Src/main.c **** 
 330:Core/Src/main.c ****   /* USER CODE END TIM3_Init 1 */
 331:Core/Src/main.c ****   htim3.Instance = TIM3;
 332:Core/Src/main.c ****   htim3.Init.Prescaler = 8400-1;
 333:Core/Src/main.c ****   htim3.Init.CounterMode = TIM_COUNTERMODE_UP;
 334:Core/Src/main.c ****   htim3.Init.Period = 100-1;
 335:Core/Src/main.c ****   htim3.Init.ClockDivision = TIM_CLOCKDIVISION_DIV1;
 336:Core/Src/main.c ****   htim3.Init.AutoReloadPreload = TIM_AUTORELOAD_PRELOAD_DISABLE;
 337:Core/Src/main.c ****   if (HAL_TIM_Base_Init(&htim3) != HAL_OK)
 338:Core/Src/main.c ****   {
 339:Core/Src/main.c ****     Error_Handler();
 340:Core/Src/main.c ****   }
 341:Core/Src/main.c ****   sClockSourceConfig.ClockSource = TIM_CLOCKSOURCE_INTERNAL;
 342:Core/Src/main.c ****   if (HAL_TIM_ConfigClockSource(&htim3, &sClockSourceConfig) != HAL_OK)
 343:Core/Src/main.c ****   {
 344:Core/Src/main.c ****     Error_Handler();
 345:Core/Src/main.c ****   }
 346:Core/Src/main.c ****   if (HAL_TIM_PWM_Init(&htim3) != HAL_OK)
 347:Core/Src/main.c ****   {
 348:Core/Src/main.c ****     Error_Handler();
 349:Core/Src/main.c ****   }
 350:Core/Src/main.c ****   sMasterConfig.MasterOutputTrigger = TIM_TRGO_RESET;
 351:Core/Src/main.c ****   sMasterConfig.MasterSlaveMode = TIM_MASTERSLAVEMODE_DISABLE;
 352:Core/Src/main.c ****   if (HAL_TIMEx_MasterConfigSynchronization(&htim3, &sMasterConfig) != HAL_OK)
 353:Core/Src/main.c ****   {
 354:Core/Src/main.c ****     Error_Handler();
 355:Core/Src/main.c ****   }
 356:Core/Src/main.c ****   sConfigOC.OCMode = TIM_OCMODE_PWM1;
 357:Core/Src/main.c ****   sConfigOC.Pulse = 0;
 358:Core/Src/main.c ****   sConfigOC.OCPolarity = TIM_OCPOLARITY_HIGH;
 359:Core/Src/main.c ****   sConfigOC.OCFastMode = TIM_OCFAST_DISABLE;
 360:Core/Src/main.c ****   if (HAL_TIM_PWM_ConfigChannel(&htim3, &sConfigOC, TIM_CHANNEL_1) != HAL_OK)
 361:Core/Src/main.c ****   {
 362:Core/Src/main.c ****     Error_Handler();
 363:Core/Src/main.c ****   }
 364:Core/Src/main.c ****   /* USER CODE BEGIN TIM3_Init 2 */
 365:Core/Src/main.c **** 
 366:Core/Src/main.c ****   /* USER CODE END TIM3_Init 2 */
 367:Core/Src/main.c ****   HAL_TIM_MspPostInit(&htim3);
 368:Core/Src/main.c **** 
 369:Core/Src/main.c **** }
 370:Core/Src/main.c **** 
 371:Core/Src/main.c **** /**
 372:Core/Src/main.c ****   * @brief TIM5 Initialization Function
 373:Core/Src/main.c ****   * @param None
ARM GAS  C:\Users\lukas\AppData\Local\Temp\ccFZ7lQg.s 			page 8


 374:Core/Src/main.c ****   * @retval None
 375:Core/Src/main.c ****   */
 376:Core/Src/main.c **** static void MX_TIM5_Init(void)
 377:Core/Src/main.c **** {
 378:Core/Src/main.c **** 
 379:Core/Src/main.c ****   /* USER CODE BEGIN TIM5_Init 0 */
 380:Core/Src/main.c **** 
 381:Core/Src/main.c ****   /* USER CODE END TIM5_Init 0 */
 382:Core/Src/main.c **** 
 383:Core/Src/main.c ****   TIM_ClockConfigTypeDef sClockSourceConfig = {0};
 384:Core/Src/main.c ****   TIM_MasterConfigTypeDef sMasterConfig = {0};
 385:Core/Src/main.c ****   TIM_OC_InitTypeDef sConfigOC = {0};
 386:Core/Src/main.c **** 
 387:Core/Src/main.c ****   /* USER CODE BEGIN TIM5_Init 1 */
 388:Core/Src/main.c **** 
 389:Core/Src/main.c ****   /* USER CODE END TIM5_Init 1 */
 390:Core/Src/main.c ****   htim5.Instance = TIM5;
 391:Core/Src/main.c ****   htim5.Init.Prescaler = 8400-1;
 392:Core/Src/main.c ****   htim5.Init.CounterMode = TIM_COUNTERMODE_UP;
 393:Core/Src/main.c ****   htim5.Init.Period = 100-1;
 394:Core/Src/main.c ****   htim5.Init.ClockDivision = TIM_CLOCKDIVISION_DIV1;
 395:Core/Src/main.c ****   htim5.Init.AutoReloadPreload = TIM_AUTORELOAD_PRELOAD_DISABLE;
 396:Core/Src/main.c ****   if (HAL_TIM_Base_Init(&htim5) != HAL_OK)
 397:Core/Src/main.c ****   {
 398:Core/Src/main.c ****     Error_Handler();
 399:Core/Src/main.c ****   }
 400:Core/Src/main.c ****   sClockSourceConfig.ClockSource = TIM_CLOCKSOURCE_INTERNAL;
 401:Core/Src/main.c ****   if (HAL_TIM_ConfigClockSource(&htim5, &sClockSourceConfig) != HAL_OK)
 402:Core/Src/main.c ****   {
 403:Core/Src/main.c ****     Error_Handler();
 404:Core/Src/main.c ****   }
 405:Core/Src/main.c ****   if (HAL_TIM_PWM_Init(&htim5) != HAL_OK)
 406:Core/Src/main.c ****   {
 407:Core/Src/main.c ****     Error_Handler();
 408:Core/Src/main.c ****   }
 409:Core/Src/main.c ****   if (HAL_TIM_OC_Init(&htim5) != HAL_OK)
 410:Core/Src/main.c ****   {
 411:Core/Src/main.c ****     Error_Handler();
 412:Core/Src/main.c ****   }
 413:Core/Src/main.c ****   sMasterConfig.MasterOutputTrigger = TIM_TRGO_RESET;
 414:Core/Src/main.c ****   sMasterConfig.MasterSlaveMode = TIM_MASTERSLAVEMODE_DISABLE;
 415:Core/Src/main.c ****   if (HAL_TIMEx_MasterConfigSynchronization(&htim5, &sMasterConfig) != HAL_OK)
 416:Core/Src/main.c ****   {
 417:Core/Src/main.c ****     Error_Handler();
 418:Core/Src/main.c ****   }
 419:Core/Src/main.c ****   sConfigOC.OCMode = TIM_OCMODE_PWM1;
 420:Core/Src/main.c ****   sConfigOC.Pulse = 0;
 421:Core/Src/main.c ****   sConfigOC.OCPolarity = TIM_OCPOLARITY_HIGH;
 422:Core/Src/main.c ****   sConfigOC.OCFastMode = TIM_OCFAST_DISABLE;
 423:Core/Src/main.c ****   if (HAL_TIM_PWM_ConfigChannel(&htim5, &sConfigOC, TIM_CHANNEL_1) != HAL_OK)
 424:Core/Src/main.c ****   {
 425:Core/Src/main.c ****     Error_Handler();
 426:Core/Src/main.c ****   }
 427:Core/Src/main.c ****   if (HAL_TIM_PWM_ConfigChannel(&htim5, &sConfigOC, TIM_CHANNEL_2) != HAL_OK)
 428:Core/Src/main.c ****   {
 429:Core/Src/main.c ****     Error_Handler();
 430:Core/Src/main.c ****   }
ARM GAS  C:\Users\lukas\AppData\Local\Temp\ccFZ7lQg.s 			page 9


 431:Core/Src/main.c ****   if (HAL_TIM_PWM_ConfigChannel(&htim5, &sConfigOC, TIM_CHANNEL_3) != HAL_OK)
 432:Core/Src/main.c ****   {
 433:Core/Src/main.c ****     Error_Handler();
 434:Core/Src/main.c ****   }
 435:Core/Src/main.c ****   sConfigOC.OCMode = TIM_OCMODE_TIMING;
 436:Core/Src/main.c ****   if (HAL_TIM_OC_ConfigChannel(&htim5, &sConfigOC, TIM_CHANNEL_4) != HAL_OK)
 437:Core/Src/main.c ****   {
 438:Core/Src/main.c ****     Error_Handler();
 439:Core/Src/main.c ****   }
 440:Core/Src/main.c ****   /* USER CODE BEGIN TIM5_Init 2 */
 441:Core/Src/main.c **** 
 442:Core/Src/main.c ****   /* USER CODE END TIM5_Init 2 */
 443:Core/Src/main.c ****   HAL_TIM_MspPostInit(&htim5);
 444:Core/Src/main.c **** 
 445:Core/Src/main.c **** }
 446:Core/Src/main.c **** 
 447:Core/Src/main.c **** /**
 448:Core/Src/main.c ****   * @brief USART1 Initialization Function
 449:Core/Src/main.c ****   * @param None
 450:Core/Src/main.c ****   * @retval None
 451:Core/Src/main.c ****   */
 452:Core/Src/main.c **** static void MX_USART1_UART_Init(void)
 453:Core/Src/main.c **** {
 454:Core/Src/main.c **** 
 455:Core/Src/main.c ****   /* USER CODE BEGIN USART1_Init 0 */
 456:Core/Src/main.c **** 
 457:Core/Src/main.c ****   /* USER CODE END USART1_Init 0 */
 458:Core/Src/main.c **** 
 459:Core/Src/main.c ****   /* USER CODE BEGIN USART1_Init 1 */
 460:Core/Src/main.c **** 
 461:Core/Src/main.c ****   /* USER CODE END USART1_Init 1 */
 462:Core/Src/main.c ****   huart1.Instance = USART1;
 463:Core/Src/main.c ****   huart1.Init.BaudRate = 115200;
 464:Core/Src/main.c ****   huart1.Init.WordLength = UART_WORDLENGTH_8B;
 465:Core/Src/main.c ****   huart1.Init.StopBits = UART_STOPBITS_1;
 466:Core/Src/main.c ****   huart1.Init.Parity = UART_PARITY_NONE;
 467:Core/Src/main.c ****   huart1.Init.Mode = UART_MODE_TX_RX;
 468:Core/Src/main.c ****   huart1.Init.HwFlowCtl = UART_HWCONTROL_NONE;
 469:Core/Src/main.c ****   huart1.Init.OverSampling = UART_OVERSAMPLING_16;
 470:Core/Src/main.c ****   if (HAL_UART_Init(&huart1) != HAL_OK)
 471:Core/Src/main.c ****   {
 472:Core/Src/main.c ****     Error_Handler();
 473:Core/Src/main.c ****   }
 474:Core/Src/main.c ****   /* USER CODE BEGIN USART1_Init 2 */
 475:Core/Src/main.c **** 
 476:Core/Src/main.c ****   /* USER CODE END USART1_Init 2 */
 477:Core/Src/main.c **** 
 478:Core/Src/main.c **** }
 479:Core/Src/main.c **** 
 480:Core/Src/main.c **** /**
 481:Core/Src/main.c ****   * @brief USART3 Initialization Function
 482:Core/Src/main.c ****   * @param None
 483:Core/Src/main.c ****   * @retval None
 484:Core/Src/main.c ****   */
 485:Core/Src/main.c **** static void MX_USART3_UART_Init(void)
 486:Core/Src/main.c **** {
 487:Core/Src/main.c **** 
ARM GAS  C:\Users\lukas\AppData\Local\Temp\ccFZ7lQg.s 			page 10


 488:Core/Src/main.c ****   /* USER CODE BEGIN USART3_Init 0 */
 489:Core/Src/main.c **** 
 490:Core/Src/main.c ****   /* USER CODE END USART3_Init 0 */
 491:Core/Src/main.c **** 
 492:Core/Src/main.c ****   /* USER CODE BEGIN USART3_Init 1 */
 493:Core/Src/main.c **** 
 494:Core/Src/main.c ****   /* USER CODE END USART3_Init 1 */
 495:Core/Src/main.c ****   huart3.Instance = USART3;
 496:Core/Src/main.c ****   huart3.Init.BaudRate = 115200;
 497:Core/Src/main.c ****   huart3.Init.WordLength = UART_WORDLENGTH_8B;
 498:Core/Src/main.c ****   huart3.Init.StopBits = UART_STOPBITS_1;
 499:Core/Src/main.c ****   huart3.Init.Parity = UART_PARITY_NONE;
 500:Core/Src/main.c ****   huart3.Init.Mode = UART_MODE_TX_RX;
 501:Core/Src/main.c ****   huart3.Init.HwFlowCtl = UART_HWCONTROL_NONE;
 502:Core/Src/main.c ****   huart3.Init.OverSampling = UART_OVERSAMPLING_16;
 503:Core/Src/main.c ****   if (HAL_UART_Init(&huart3) != HAL_OK)
 504:Core/Src/main.c ****   {
 505:Core/Src/main.c ****     Error_Handler();
 506:Core/Src/main.c ****   }
 507:Core/Src/main.c ****   /* USER CODE BEGIN USART3_Init 2 */
 508:Core/Src/main.c **** 
 509:Core/Src/main.c ****   /* USER CODE END USART3_Init 2 */
 510:Core/Src/main.c **** 
 511:Core/Src/main.c **** }
 512:Core/Src/main.c **** 
 513:Core/Src/main.c **** /**
 514:Core/Src/main.c ****   * @brief GPIO Initialization Function
 515:Core/Src/main.c ****   * @param None
 516:Core/Src/main.c ****   * @retval None
 517:Core/Src/main.c ****   */
 518:Core/Src/main.c **** static void MX_GPIO_Init(void)
 519:Core/Src/main.c **** {
  28              		.loc 1 519 1 view -0
  29              		.cfi_startproc
  30              		@ args = 0, pretend = 0, frame = 40
  31              		@ frame_needed = 0, uses_anonymous_args = 0
  32 0000 10B5     		push	{r4, lr}
  33              	.LCFI0:
  34              		.cfi_def_cfa_offset 8
  35              		.cfi_offset 4, -8
  36              		.cfi_offset 14, -4
  37 0002 8AB0     		sub	sp, sp, #40
  38              	.LCFI1:
  39              		.cfi_def_cfa_offset 48
 520:Core/Src/main.c ****   GPIO_InitTypeDef GPIO_InitStruct = {0};
  40              		.loc 1 520 3 view .LVU1
  41              		.loc 1 520 20 is_stmt 0 view .LVU2
  42 0004 0024     		movs	r4, #0
  43 0006 0594     		str	r4, [sp, #20]
  44 0008 0694     		str	r4, [sp, #24]
  45 000a 0794     		str	r4, [sp, #28]
  46 000c 0894     		str	r4, [sp, #32]
  47 000e 0994     		str	r4, [sp, #36]
 521:Core/Src/main.c **** /* USER CODE BEGIN MX_GPIO_Init_1 */
 522:Core/Src/main.c **** /* USER CODE END MX_GPIO_Init_1 */
 523:Core/Src/main.c **** 
 524:Core/Src/main.c ****   /* GPIO Ports Clock Enable */
ARM GAS  C:\Users\lukas\AppData\Local\Temp\ccFZ7lQg.s 			page 11


 525:Core/Src/main.c ****   __HAL_RCC_GPIOC_CLK_ENABLE();
  48              		.loc 1 525 3 is_stmt 1 view .LVU3
  49              	.LBB4:
  50              		.loc 1 525 3 view .LVU4
  51 0010 0094     		str	r4, [sp]
  52              		.loc 1 525 3 view .LVU5
  53 0012 254B     		ldr	r3, .L3
  54 0014 1A6B     		ldr	r2, [r3, #48]
  55 0016 42F00402 		orr	r2, r2, #4
  56 001a 1A63     		str	r2, [r3, #48]
  57              		.loc 1 525 3 view .LVU6
  58 001c 1A6B     		ldr	r2, [r3, #48]
  59 001e 02F00402 		and	r2, r2, #4
  60 0022 0092     		str	r2, [sp]
  61              		.loc 1 525 3 view .LVU7
  62 0024 009A     		ldr	r2, [sp]
  63              	.LBE4:
  64              		.loc 1 525 3 view .LVU8
 526:Core/Src/main.c ****   __HAL_RCC_GPIOH_CLK_ENABLE();
  65              		.loc 1 526 3 view .LVU9
  66              	.LBB5:
  67              		.loc 1 526 3 view .LVU10
  68 0026 0194     		str	r4, [sp, #4]
  69              		.loc 1 526 3 view .LVU11
  70 0028 1A6B     		ldr	r2, [r3, #48]
  71 002a 42F08002 		orr	r2, r2, #128
  72 002e 1A63     		str	r2, [r3, #48]
  73              		.loc 1 526 3 view .LVU12
  74 0030 1A6B     		ldr	r2, [r3, #48]
  75 0032 02F08002 		and	r2, r2, #128
  76 0036 0192     		str	r2, [sp, #4]
  77              		.loc 1 526 3 view .LVU13
  78 0038 019A     		ldr	r2, [sp, #4]
  79              	.LBE5:
  80              		.loc 1 526 3 view .LVU14
 527:Core/Src/main.c ****   __HAL_RCC_GPIOA_CLK_ENABLE();
  81              		.loc 1 527 3 view .LVU15
  82              	.LBB6:
  83              		.loc 1 527 3 view .LVU16
  84 003a 0294     		str	r4, [sp, #8]
  85              		.loc 1 527 3 view .LVU17
  86 003c 1A6B     		ldr	r2, [r3, #48]
  87 003e 42F00102 		orr	r2, r2, #1
  88 0042 1A63     		str	r2, [r3, #48]
  89              		.loc 1 527 3 view .LVU18
  90 0044 1A6B     		ldr	r2, [r3, #48]
  91 0046 02F00102 		and	r2, r2, #1
  92 004a 0292     		str	r2, [sp, #8]
  93              		.loc 1 527 3 view .LVU19
  94 004c 029A     		ldr	r2, [sp, #8]
  95              	.LBE6:
  96              		.loc 1 527 3 view .LVU20
 528:Core/Src/main.c ****   __HAL_RCC_GPIOB_CLK_ENABLE();
  97              		.loc 1 528 3 view .LVU21
  98              	.LBB7:
  99              		.loc 1 528 3 view .LVU22
 100 004e 0394     		str	r4, [sp, #12]
ARM GAS  C:\Users\lukas\AppData\Local\Temp\ccFZ7lQg.s 			page 12


 101              		.loc 1 528 3 view .LVU23
 102 0050 1A6B     		ldr	r2, [r3, #48]
 103 0052 42F00202 		orr	r2, r2, #2
 104 0056 1A63     		str	r2, [r3, #48]
 105              		.loc 1 528 3 view .LVU24
 106 0058 1A6B     		ldr	r2, [r3, #48]
 107 005a 02F00202 		and	r2, r2, #2
 108 005e 0392     		str	r2, [sp, #12]
 109              		.loc 1 528 3 view .LVU25
 110 0060 039A     		ldr	r2, [sp, #12]
 111              	.LBE7:
 112              		.loc 1 528 3 view .LVU26
 529:Core/Src/main.c ****   __HAL_RCC_GPIOD_CLK_ENABLE();
 113              		.loc 1 529 3 view .LVU27
 114              	.LBB8:
 115              		.loc 1 529 3 view .LVU28
 116 0062 0494     		str	r4, [sp, #16]
 117              		.loc 1 529 3 view .LVU29
 118 0064 1A6B     		ldr	r2, [r3, #48]
 119 0066 42F00802 		orr	r2, r2, #8
 120 006a 1A63     		str	r2, [r3, #48]
 121              		.loc 1 529 3 view .LVU30
 122 006c 1B6B     		ldr	r3, [r3, #48]
 123 006e 03F00803 		and	r3, r3, #8
 124 0072 0493     		str	r3, [sp, #16]
 125              		.loc 1 529 3 view .LVU31
 126 0074 049B     		ldr	r3, [sp, #16]
 127              	.LBE8:
 128              		.loc 1 529 3 view .LVU32
 530:Core/Src/main.c **** 
 531:Core/Src/main.c ****   /*Configure GPIO pin : BAR_INT_Pin */
 532:Core/Src/main.c ****   GPIO_InitStruct.Pin = BAR_INT_Pin;
 129              		.loc 1 532 3 view .LVU33
 130              		.loc 1 532 23 is_stmt 0 view .LVU34
 131 0076 8023     		movs	r3, #128
 132 0078 0593     		str	r3, [sp, #20]
 533:Core/Src/main.c ****   GPIO_InitStruct.Mode = GPIO_MODE_INPUT;
 133              		.loc 1 533 3 is_stmt 1 view .LVU35
 534:Core/Src/main.c ****   GPIO_InitStruct.Pull = GPIO_NOPULL;
 134              		.loc 1 534 3 view .LVU36
 535:Core/Src/main.c ****   HAL_GPIO_Init(BAR_INT_GPIO_Port, &GPIO_InitStruct);
 135              		.loc 1 535 3 view .LVU37
 136 007a 05A9     		add	r1, sp, #20
 137 007c 0B48     		ldr	r0, .L3+4
 138 007e FFF7FEFF 		bl	HAL_GPIO_Init
 139              	.LVL0:
 536:Core/Src/main.c **** 
 537:Core/Src/main.c ****   /*Configure GPIO pin : IMU_INT_Pin */
 538:Core/Src/main.c ****   GPIO_InitStruct.Pin = IMU_INT_Pin;
 140              		.loc 1 538 3 view .LVU38
 141              		.loc 1 538 23 is_stmt 0 view .LVU39
 142 0082 1023     		movs	r3, #16
 143 0084 0593     		str	r3, [sp, #20]
 539:Core/Src/main.c ****   GPIO_InitStruct.Mode = GPIO_MODE_INPUT;
 144              		.loc 1 539 3 is_stmt 1 view .LVU40
 145              		.loc 1 539 24 is_stmt 0 view .LVU41
 146 0086 0694     		str	r4, [sp, #24]
ARM GAS  C:\Users\lukas\AppData\Local\Temp\ccFZ7lQg.s 			page 13


 540:Core/Src/main.c ****   GPIO_InitStruct.Pull = GPIO_NOPULL;
 147              		.loc 1 540 3 is_stmt 1 view .LVU42
 148              		.loc 1 540 24 is_stmt 0 view .LVU43
 149 0088 0794     		str	r4, [sp, #28]
 541:Core/Src/main.c ****   HAL_GPIO_Init(IMU_INT_GPIO_Port, &GPIO_InitStruct);
 150              		.loc 1 541 3 is_stmt 1 view .LVU44
 151 008a 05A9     		add	r1, sp, #20
 152 008c 0848     		ldr	r0, .L3+8
 153 008e FFF7FEFF 		bl	HAL_GPIO_Init
 154              	.LVL1:
 542:Core/Src/main.c **** 
 543:Core/Src/main.c ****   /*Configure GPIO pin : SD_DETECT_Pin */
 544:Core/Src/main.c ****   GPIO_InitStruct.Pin = SD_DETECT_Pin;
 155              		.loc 1 544 3 view .LVU45
 156              		.loc 1 544 23 is_stmt 0 view .LVU46
 157 0092 0123     		movs	r3, #1
 158 0094 0593     		str	r3, [sp, #20]
 545:Core/Src/main.c ****   GPIO_InitStruct.Mode = GPIO_MODE_INPUT;
 159              		.loc 1 545 3 is_stmt 1 view .LVU47
 160              		.loc 1 545 24 is_stmt 0 view .LVU48
 161 0096 0694     		str	r4, [sp, #24]
 546:Core/Src/main.c ****   GPIO_InitStruct.Pull = GPIO_NOPULL;
 162              		.loc 1 546 3 is_stmt 1 view .LVU49
 163              		.loc 1 546 24 is_stmt 0 view .LVU50
 164 0098 0794     		str	r4, [sp, #28]
 547:Core/Src/main.c ****   HAL_GPIO_Init(SD_DETECT_GPIO_Port, &GPIO_InitStruct);
 165              		.loc 1 547 3 is_stmt 1 view .LVU51
 166 009a 05A9     		add	r1, sp, #20
 167 009c 0548     		ldr	r0, .L3+12
 168 009e FFF7FEFF 		bl	HAL_GPIO_Init
 169              	.LVL2:
 548:Core/Src/main.c **** 
 549:Core/Src/main.c **** /* USER CODE BEGIN MX_GPIO_Init_2 */
 550:Core/Src/main.c **** /* USER CODE END MX_GPIO_Init_2 */
 551:Core/Src/main.c **** }
 170              		.loc 1 551 1 is_stmt 0 view .LVU52
 171 00a2 0AB0     		add	sp, sp, #40
 172              	.LCFI2:
 173              		.cfi_def_cfa_offset 8
 174              		@ sp needed
 175 00a4 10BD     		pop	{r4, pc}
 176              	.L4:
 177 00a6 00BF     		.align	2
 178              	.L3:
 179 00a8 00380240 		.word	1073887232
 180 00ac 00000240 		.word	1073872896
 181 00b0 00080240 		.word	1073874944
 182 00b4 00040240 		.word	1073873920
 183              		.cfi_endproc
 184              	.LFE143:
 186              		.section	.text.Error_Handler,"ax",%progbits
 187              		.align	1
 188              		.global	Error_Handler
 189              		.syntax unified
 190              		.thumb
 191              		.thumb_func
 193              	Error_Handler:
ARM GAS  C:\Users\lukas\AppData\Local\Temp\ccFZ7lQg.s 			page 14


 194              	.LFB144:
 552:Core/Src/main.c **** 
 553:Core/Src/main.c **** /* USER CODE BEGIN 4 */
 554:Core/Src/main.c **** 
 555:Core/Src/main.c **** /* USER CODE END 4 */
 556:Core/Src/main.c **** 
 557:Core/Src/main.c **** /**
 558:Core/Src/main.c ****   * @brief  This function is executed in case of error occurrence.
 559:Core/Src/main.c ****   * @retval None
 560:Core/Src/main.c ****   */
 561:Core/Src/main.c **** void Error_Handler(void)
 562:Core/Src/main.c **** {
 195              		.loc 1 562 1 is_stmt 1 view -0
 196              		.cfi_startproc
 197              		@ Volatile: function does not return.
 198              		@ args = 0, pretend = 0, frame = 0
 199              		@ frame_needed = 0, uses_anonymous_args = 0
 200              		@ link register save eliminated.
 563:Core/Src/main.c ****   /* USER CODE BEGIN Error_Handler_Debug */
 564:Core/Src/main.c ****   /* User can add his own implementation to report the HAL error return state */
 565:Core/Src/main.c ****   __disable_irq();
 201              		.loc 1 565 3 view .LVU54
 202              	.LBB9:
 203              	.LBI9:
 204              		.file 2 "Drivers/CMSIS/Include/cmsis_gcc.h"
   1:Drivers/CMSIS/Include/cmsis_gcc.h **** /**************************************************************************//**
   2:Drivers/CMSIS/Include/cmsis_gcc.h ****  * @file     cmsis_gcc.h
   3:Drivers/CMSIS/Include/cmsis_gcc.h ****  * @brief    CMSIS compiler GCC header file
   4:Drivers/CMSIS/Include/cmsis_gcc.h ****  * @version  V5.0.4
   5:Drivers/CMSIS/Include/cmsis_gcc.h ****  * @date     09. April 2018
   6:Drivers/CMSIS/Include/cmsis_gcc.h ****  ******************************************************************************/
   7:Drivers/CMSIS/Include/cmsis_gcc.h **** /*
   8:Drivers/CMSIS/Include/cmsis_gcc.h ****  * Copyright (c) 2009-2018 Arm Limited. All rights reserved.
   9:Drivers/CMSIS/Include/cmsis_gcc.h ****  *
  10:Drivers/CMSIS/Include/cmsis_gcc.h ****  * SPDX-License-Identifier: Apache-2.0
  11:Drivers/CMSIS/Include/cmsis_gcc.h ****  *
  12:Drivers/CMSIS/Include/cmsis_gcc.h ****  * Licensed under the Apache License, Version 2.0 (the License); you may
  13:Drivers/CMSIS/Include/cmsis_gcc.h ****  * not use this file except in compliance with the License.
  14:Drivers/CMSIS/Include/cmsis_gcc.h ****  * You may obtain a copy of the License at
  15:Drivers/CMSIS/Include/cmsis_gcc.h ****  *
  16:Drivers/CMSIS/Include/cmsis_gcc.h ****  * www.apache.org/licenses/LICENSE-2.0
  17:Drivers/CMSIS/Include/cmsis_gcc.h ****  *
  18:Drivers/CMSIS/Include/cmsis_gcc.h ****  * Unless required by applicable law or agreed to in writing, software
  19:Drivers/CMSIS/Include/cmsis_gcc.h ****  * distributed under the License is distributed on an AS IS BASIS, WITHOUT
  20:Drivers/CMSIS/Include/cmsis_gcc.h ****  * WARRANTIES OR CONDITIONS OF ANY KIND, either express or implied.
  21:Drivers/CMSIS/Include/cmsis_gcc.h ****  * See the License for the specific language governing permissions and
  22:Drivers/CMSIS/Include/cmsis_gcc.h ****  * limitations under the License.
  23:Drivers/CMSIS/Include/cmsis_gcc.h ****  */
  24:Drivers/CMSIS/Include/cmsis_gcc.h **** 
  25:Drivers/CMSIS/Include/cmsis_gcc.h **** #ifndef __CMSIS_GCC_H
  26:Drivers/CMSIS/Include/cmsis_gcc.h **** #define __CMSIS_GCC_H
  27:Drivers/CMSIS/Include/cmsis_gcc.h **** 
  28:Drivers/CMSIS/Include/cmsis_gcc.h **** /* ignore some GCC warnings */
  29:Drivers/CMSIS/Include/cmsis_gcc.h **** #pragma GCC diagnostic push
  30:Drivers/CMSIS/Include/cmsis_gcc.h **** #pragma GCC diagnostic ignored "-Wsign-conversion"
  31:Drivers/CMSIS/Include/cmsis_gcc.h **** #pragma GCC diagnostic ignored "-Wconversion"
  32:Drivers/CMSIS/Include/cmsis_gcc.h **** #pragma GCC diagnostic ignored "-Wunused-parameter"
ARM GAS  C:\Users\lukas\AppData\Local\Temp\ccFZ7lQg.s 			page 15


  33:Drivers/CMSIS/Include/cmsis_gcc.h **** 
  34:Drivers/CMSIS/Include/cmsis_gcc.h **** /* Fallback for __has_builtin */
  35:Drivers/CMSIS/Include/cmsis_gcc.h **** #ifndef __has_builtin
  36:Drivers/CMSIS/Include/cmsis_gcc.h ****   #define __has_builtin(x) (0)
  37:Drivers/CMSIS/Include/cmsis_gcc.h **** #endif
  38:Drivers/CMSIS/Include/cmsis_gcc.h **** 
  39:Drivers/CMSIS/Include/cmsis_gcc.h **** /* CMSIS compiler specific defines */
  40:Drivers/CMSIS/Include/cmsis_gcc.h **** #ifndef   __ASM
  41:Drivers/CMSIS/Include/cmsis_gcc.h ****   #define __ASM                                  __asm
  42:Drivers/CMSIS/Include/cmsis_gcc.h **** #endif
  43:Drivers/CMSIS/Include/cmsis_gcc.h **** #ifndef   __INLINE
  44:Drivers/CMSIS/Include/cmsis_gcc.h ****   #define __INLINE                               inline
  45:Drivers/CMSIS/Include/cmsis_gcc.h **** #endif
  46:Drivers/CMSIS/Include/cmsis_gcc.h **** #ifndef   __STATIC_INLINE
  47:Drivers/CMSIS/Include/cmsis_gcc.h ****   #define __STATIC_INLINE                        static inline
  48:Drivers/CMSIS/Include/cmsis_gcc.h **** #endif
  49:Drivers/CMSIS/Include/cmsis_gcc.h **** #ifndef   __STATIC_FORCEINLINE                 
  50:Drivers/CMSIS/Include/cmsis_gcc.h ****   #define __STATIC_FORCEINLINE                   __attribute__((always_inline)) static inline
  51:Drivers/CMSIS/Include/cmsis_gcc.h **** #endif                                           
  52:Drivers/CMSIS/Include/cmsis_gcc.h **** #ifndef   __NO_RETURN
  53:Drivers/CMSIS/Include/cmsis_gcc.h ****   #define __NO_RETURN                            __attribute__((__noreturn__))
  54:Drivers/CMSIS/Include/cmsis_gcc.h **** #endif
  55:Drivers/CMSIS/Include/cmsis_gcc.h **** #ifndef   __USED
  56:Drivers/CMSIS/Include/cmsis_gcc.h ****   #define __USED                                 __attribute__((used))
  57:Drivers/CMSIS/Include/cmsis_gcc.h **** #endif
  58:Drivers/CMSIS/Include/cmsis_gcc.h **** #ifndef   __WEAK
  59:Drivers/CMSIS/Include/cmsis_gcc.h ****   #define __WEAK                                 __attribute__((weak))
  60:Drivers/CMSIS/Include/cmsis_gcc.h **** #endif
  61:Drivers/CMSIS/Include/cmsis_gcc.h **** #ifndef   __PACKED
  62:Drivers/CMSIS/Include/cmsis_gcc.h ****   #define __PACKED                               __attribute__((packed, aligned(1)))
  63:Drivers/CMSIS/Include/cmsis_gcc.h **** #endif
  64:Drivers/CMSIS/Include/cmsis_gcc.h **** #ifndef   __PACKED_STRUCT
  65:Drivers/CMSIS/Include/cmsis_gcc.h ****   #define __PACKED_STRUCT                        struct __attribute__((packed, aligned(1)))
  66:Drivers/CMSIS/Include/cmsis_gcc.h **** #endif
  67:Drivers/CMSIS/Include/cmsis_gcc.h **** #ifndef   __PACKED_UNION
  68:Drivers/CMSIS/Include/cmsis_gcc.h ****   #define __PACKED_UNION                         union __attribute__((packed, aligned(1)))
  69:Drivers/CMSIS/Include/cmsis_gcc.h **** #endif
  70:Drivers/CMSIS/Include/cmsis_gcc.h **** #ifndef   __UNALIGNED_UINT32        /* deprecated */
  71:Drivers/CMSIS/Include/cmsis_gcc.h ****   #pragma GCC diagnostic push
  72:Drivers/CMSIS/Include/cmsis_gcc.h ****   #pragma GCC diagnostic ignored "-Wpacked"
  73:Drivers/CMSIS/Include/cmsis_gcc.h ****   #pragma GCC diagnostic ignored "-Wattributes"
  74:Drivers/CMSIS/Include/cmsis_gcc.h ****   struct __attribute__((packed)) T_UINT32 { uint32_t v; };
  75:Drivers/CMSIS/Include/cmsis_gcc.h ****   #pragma GCC diagnostic pop
  76:Drivers/CMSIS/Include/cmsis_gcc.h ****   #define __UNALIGNED_UINT32(x)                  (((struct T_UINT32 *)(x))->v)
  77:Drivers/CMSIS/Include/cmsis_gcc.h **** #endif
  78:Drivers/CMSIS/Include/cmsis_gcc.h **** #ifndef   __UNALIGNED_UINT16_WRITE
  79:Drivers/CMSIS/Include/cmsis_gcc.h ****   #pragma GCC diagnostic push
  80:Drivers/CMSIS/Include/cmsis_gcc.h ****   #pragma GCC diagnostic ignored "-Wpacked"
  81:Drivers/CMSIS/Include/cmsis_gcc.h ****   #pragma GCC diagnostic ignored "-Wattributes"
  82:Drivers/CMSIS/Include/cmsis_gcc.h ****   __PACKED_STRUCT T_UINT16_WRITE { uint16_t v; };
  83:Drivers/CMSIS/Include/cmsis_gcc.h ****   #pragma GCC diagnostic pop
  84:Drivers/CMSIS/Include/cmsis_gcc.h ****   #define __UNALIGNED_UINT16_WRITE(addr, val)    (void)((((struct T_UINT16_WRITE *)(void *)(addr))-
  85:Drivers/CMSIS/Include/cmsis_gcc.h **** #endif
  86:Drivers/CMSIS/Include/cmsis_gcc.h **** #ifndef   __UNALIGNED_UINT16_READ
  87:Drivers/CMSIS/Include/cmsis_gcc.h ****   #pragma GCC diagnostic push
  88:Drivers/CMSIS/Include/cmsis_gcc.h ****   #pragma GCC diagnostic ignored "-Wpacked"
  89:Drivers/CMSIS/Include/cmsis_gcc.h ****   #pragma GCC diagnostic ignored "-Wattributes"
ARM GAS  C:\Users\lukas\AppData\Local\Temp\ccFZ7lQg.s 			page 16


  90:Drivers/CMSIS/Include/cmsis_gcc.h ****   __PACKED_STRUCT T_UINT16_READ { uint16_t v; };
  91:Drivers/CMSIS/Include/cmsis_gcc.h ****   #pragma GCC diagnostic pop
  92:Drivers/CMSIS/Include/cmsis_gcc.h ****   #define __UNALIGNED_UINT16_READ(addr)          (((const struct T_UINT16_READ *)(const void *)(add
  93:Drivers/CMSIS/Include/cmsis_gcc.h **** #endif
  94:Drivers/CMSIS/Include/cmsis_gcc.h **** #ifndef   __UNALIGNED_UINT32_WRITE
  95:Drivers/CMSIS/Include/cmsis_gcc.h ****   #pragma GCC diagnostic push
  96:Drivers/CMSIS/Include/cmsis_gcc.h ****   #pragma GCC diagnostic ignored "-Wpacked"
  97:Drivers/CMSIS/Include/cmsis_gcc.h ****   #pragma GCC diagnostic ignored "-Wattributes"
  98:Drivers/CMSIS/Include/cmsis_gcc.h ****   __PACKED_STRUCT T_UINT32_WRITE { uint32_t v; };
  99:Drivers/CMSIS/Include/cmsis_gcc.h ****   #pragma GCC diagnostic pop
 100:Drivers/CMSIS/Include/cmsis_gcc.h ****   #define __UNALIGNED_UINT32_WRITE(addr, val)    (void)((((struct T_UINT32_WRITE *)(void *)(addr))-
 101:Drivers/CMSIS/Include/cmsis_gcc.h **** #endif
 102:Drivers/CMSIS/Include/cmsis_gcc.h **** #ifndef   __UNALIGNED_UINT32_READ
 103:Drivers/CMSIS/Include/cmsis_gcc.h ****   #pragma GCC diagnostic push
 104:Drivers/CMSIS/Include/cmsis_gcc.h ****   #pragma GCC diagnostic ignored "-Wpacked"
 105:Drivers/CMSIS/Include/cmsis_gcc.h ****   #pragma GCC diagnostic ignored "-Wattributes"
 106:Drivers/CMSIS/Include/cmsis_gcc.h ****   __PACKED_STRUCT T_UINT32_READ { uint32_t v; };
 107:Drivers/CMSIS/Include/cmsis_gcc.h ****   #pragma GCC diagnostic pop
 108:Drivers/CMSIS/Include/cmsis_gcc.h ****   #define __UNALIGNED_UINT32_READ(addr)          (((const struct T_UINT32_READ *)(const void *)(add
 109:Drivers/CMSIS/Include/cmsis_gcc.h **** #endif
 110:Drivers/CMSIS/Include/cmsis_gcc.h **** #ifndef   __ALIGNED
 111:Drivers/CMSIS/Include/cmsis_gcc.h ****   #define __ALIGNED(x)                           __attribute__((aligned(x)))
 112:Drivers/CMSIS/Include/cmsis_gcc.h **** #endif
 113:Drivers/CMSIS/Include/cmsis_gcc.h **** #ifndef   __RESTRICT
 114:Drivers/CMSIS/Include/cmsis_gcc.h ****   #define __RESTRICT                             __restrict
 115:Drivers/CMSIS/Include/cmsis_gcc.h **** #endif
 116:Drivers/CMSIS/Include/cmsis_gcc.h **** 
 117:Drivers/CMSIS/Include/cmsis_gcc.h **** 
 118:Drivers/CMSIS/Include/cmsis_gcc.h **** /* ###########################  Core Function Access  ########################### */
 119:Drivers/CMSIS/Include/cmsis_gcc.h **** /** \ingroup  CMSIS_Core_FunctionInterface
 120:Drivers/CMSIS/Include/cmsis_gcc.h ****     \defgroup CMSIS_Core_RegAccFunctions CMSIS Core Register Access Functions
 121:Drivers/CMSIS/Include/cmsis_gcc.h ****   @{
 122:Drivers/CMSIS/Include/cmsis_gcc.h ****  */
 123:Drivers/CMSIS/Include/cmsis_gcc.h **** 
 124:Drivers/CMSIS/Include/cmsis_gcc.h **** /**
 125:Drivers/CMSIS/Include/cmsis_gcc.h ****   \brief   Enable IRQ Interrupts
 126:Drivers/CMSIS/Include/cmsis_gcc.h ****   \details Enables IRQ interrupts by clearing the I-bit in the CPSR.
 127:Drivers/CMSIS/Include/cmsis_gcc.h ****            Can only be executed in Privileged modes.
 128:Drivers/CMSIS/Include/cmsis_gcc.h ****  */
 129:Drivers/CMSIS/Include/cmsis_gcc.h **** __STATIC_FORCEINLINE void __enable_irq(void)
 130:Drivers/CMSIS/Include/cmsis_gcc.h **** {
 131:Drivers/CMSIS/Include/cmsis_gcc.h ****   __ASM volatile ("cpsie i" : : : "memory");
 132:Drivers/CMSIS/Include/cmsis_gcc.h **** }
 133:Drivers/CMSIS/Include/cmsis_gcc.h **** 
 134:Drivers/CMSIS/Include/cmsis_gcc.h **** 
 135:Drivers/CMSIS/Include/cmsis_gcc.h **** /**
 136:Drivers/CMSIS/Include/cmsis_gcc.h ****   \brief   Disable IRQ Interrupts
 137:Drivers/CMSIS/Include/cmsis_gcc.h ****   \details Disables IRQ interrupts by setting the I-bit in the CPSR.
 138:Drivers/CMSIS/Include/cmsis_gcc.h ****            Can only be executed in Privileged modes.
 139:Drivers/CMSIS/Include/cmsis_gcc.h ****  */
 140:Drivers/CMSIS/Include/cmsis_gcc.h **** __STATIC_FORCEINLINE void __disable_irq(void)
 205              		.loc 2 140 27 view .LVU55
 206              	.LBB10:
 141:Drivers/CMSIS/Include/cmsis_gcc.h **** {
 142:Drivers/CMSIS/Include/cmsis_gcc.h ****   __ASM volatile ("cpsid i" : : : "memory");
 207              		.loc 2 142 3 view .LVU56
 208              		.syntax unified
ARM GAS  C:\Users\lukas\AppData\Local\Temp\ccFZ7lQg.s 			page 17


 209              	@ 142 "Drivers/CMSIS/Include/cmsis_gcc.h" 1
 210 0000 72B6     		cpsid i
 211              	@ 0 "" 2
 212              		.thumb
 213              		.syntax unified
 214              	.L6:
 215              	.LBE10:
 216              	.LBE9:
 566:Core/Src/main.c ****   while (1)
 217              		.loc 1 566 3 discriminator 1 view .LVU57
 567:Core/Src/main.c ****   {
 568:Core/Src/main.c ****   }
 218              		.loc 1 568 3 discriminator 1 view .LVU58
 566:Core/Src/main.c ****   while (1)
 219              		.loc 1 566 9 discriminator 1 view .LVU59
 220 0002 FEE7     		b	.L6
 221              		.cfi_endproc
 222              	.LFE144:
 224              		.section	.text.MX_I2C1_Init,"ax",%progbits
 225              		.align	1
 226              		.syntax unified
 227              		.thumb
 228              		.thumb_func
 230              	MX_I2C1_Init:
 231              	.LFB136:
 189:Core/Src/main.c **** 
 232              		.loc 1 189 1 view -0
 233              		.cfi_startproc
 234              		@ args = 0, pretend = 0, frame = 0
 235              		@ frame_needed = 0, uses_anonymous_args = 0
 236 0000 08B5     		push	{r3, lr}
 237              	.LCFI3:
 238              		.cfi_def_cfa_offset 8
 239              		.cfi_offset 3, -8
 240              		.cfi_offset 14, -4
 198:Core/Src/main.c ****   hi2c1.Init.ClockSpeed = 100000;
 241              		.loc 1 198 3 view .LVU61
 198:Core/Src/main.c ****   hi2c1.Init.ClockSpeed = 100000;
 242              		.loc 1 198 18 is_stmt 0 view .LVU62
 243 0002 0A48     		ldr	r0, .L11
 244 0004 0A4B     		ldr	r3, .L11+4
 245 0006 0360     		str	r3, [r0]
 199:Core/Src/main.c ****   hi2c1.Init.DutyCycle = I2C_DUTYCYCLE_2;
 246              		.loc 1 199 3 is_stmt 1 view .LVU63
 199:Core/Src/main.c ****   hi2c1.Init.DutyCycle = I2C_DUTYCYCLE_2;
 247              		.loc 1 199 25 is_stmt 0 view .LVU64
 248 0008 0A4B     		ldr	r3, .L11+8
 249 000a 4360     		str	r3, [r0, #4]
 200:Core/Src/main.c ****   hi2c1.Init.OwnAddress1 = 0;
 250              		.loc 1 200 3 is_stmt 1 view .LVU65
 200:Core/Src/main.c ****   hi2c1.Init.OwnAddress1 = 0;
 251              		.loc 1 200 24 is_stmt 0 view .LVU66
 252 000c 0023     		movs	r3, #0
 253 000e 8360     		str	r3, [r0, #8]
 201:Core/Src/main.c ****   hi2c1.Init.AddressingMode = I2C_ADDRESSINGMODE_7BIT;
 254              		.loc 1 201 3 is_stmt 1 view .LVU67
 201:Core/Src/main.c ****   hi2c1.Init.AddressingMode = I2C_ADDRESSINGMODE_7BIT;
ARM GAS  C:\Users\lukas\AppData\Local\Temp\ccFZ7lQg.s 			page 18


 255              		.loc 1 201 26 is_stmt 0 view .LVU68
 256 0010 C360     		str	r3, [r0, #12]
 202:Core/Src/main.c ****   hi2c1.Init.DualAddressMode = I2C_DUALADDRESS_DISABLE;
 257              		.loc 1 202 3 is_stmt 1 view .LVU69
 202:Core/Src/main.c ****   hi2c1.Init.DualAddressMode = I2C_DUALADDRESS_DISABLE;
 258              		.loc 1 202 29 is_stmt 0 view .LVU70
 259 0012 4FF48042 		mov	r2, #16384
 260 0016 0261     		str	r2, [r0, #16]
 203:Core/Src/main.c ****   hi2c1.Init.OwnAddress2 = 0;
 261              		.loc 1 203 3 is_stmt 1 view .LVU71
 203:Core/Src/main.c ****   hi2c1.Init.OwnAddress2 = 0;
 262              		.loc 1 203 30 is_stmt 0 view .LVU72
 263 0018 4361     		str	r3, [r0, #20]
 204:Core/Src/main.c ****   hi2c1.Init.GeneralCallMode = I2C_GENERALCALL_DISABLE;
 264              		.loc 1 204 3 is_stmt 1 view .LVU73
 204:Core/Src/main.c ****   hi2c1.Init.GeneralCallMode = I2C_GENERALCALL_DISABLE;
 265              		.loc 1 204 26 is_stmt 0 view .LVU74
 266 001a 8361     		str	r3, [r0, #24]
 205:Core/Src/main.c ****   hi2c1.Init.NoStretchMode = I2C_NOSTRETCH_DISABLE;
 267              		.loc 1 205 3 is_stmt 1 view .LVU75
 205:Core/Src/main.c ****   hi2c1.Init.NoStretchMode = I2C_NOSTRETCH_DISABLE;
 268              		.loc 1 205 30 is_stmt 0 view .LVU76
 269 001c C361     		str	r3, [r0, #28]
 206:Core/Src/main.c ****   if (HAL_I2C_Init(&hi2c1) != HAL_OK)
 270              		.loc 1 206 3 is_stmt 1 view .LVU77
 206:Core/Src/main.c ****   if (HAL_I2C_Init(&hi2c1) != HAL_OK)
 271              		.loc 1 206 28 is_stmt 0 view .LVU78
 272 001e 0362     		str	r3, [r0, #32]
 207:Core/Src/main.c ****   {
 273              		.loc 1 207 3 is_stmt 1 view .LVU79
 207:Core/Src/main.c ****   {
 274              		.loc 1 207 7 is_stmt 0 view .LVU80
 275 0020 FFF7FEFF 		bl	HAL_I2C_Init
 276              	.LVL3:
 207:Core/Src/main.c ****   {
 277              		.loc 1 207 6 view .LVU81
 278 0024 00B9     		cbnz	r0, .L10
 215:Core/Src/main.c **** 
 279              		.loc 1 215 1 view .LVU82
 280 0026 08BD     		pop	{r3, pc}
 281              	.L10:
 209:Core/Src/main.c ****   }
 282              		.loc 1 209 5 is_stmt 1 view .LVU83
 283 0028 FFF7FEFF 		bl	Error_Handler
 284              	.LVL4:
 285              	.L12:
 286              		.align	2
 287              	.L11:
 288 002c 00000000 		.word	.LANCHOR0
 289 0030 00540040 		.word	1073763328
 290 0034 A0860100 		.word	100000
 291              		.cfi_endproc
 292              	.LFE136:
 294              		.section	.text.MX_SDIO_SD_Init,"ax",%progbits
 295              		.align	1
 296              		.syntax unified
 297              		.thumb
ARM GAS  C:\Users\lukas\AppData\Local\Temp\ccFZ7lQg.s 			page 19


 298              		.thumb_func
 300              	MX_SDIO_SD_Init:
 301              	.LFB137:
 223:Core/Src/main.c **** 
 302              		.loc 1 223 1 view -0
 303              		.cfi_startproc
 304              		@ args = 0, pretend = 0, frame = 0
 305              		@ frame_needed = 0, uses_anonymous_args = 0
 306 0000 08B5     		push	{r3, lr}
 307              	.LCFI4:
 308              		.cfi_def_cfa_offset 8
 309              		.cfi_offset 3, -8
 310              		.cfi_offset 14, -4
 232:Core/Src/main.c ****   hsd.Init.ClockEdge = SDIO_CLOCK_EDGE_RISING;
 311              		.loc 1 232 3 view .LVU85
 232:Core/Src/main.c ****   hsd.Init.ClockEdge = SDIO_CLOCK_EDGE_RISING;
 312              		.loc 1 232 16 is_stmt 0 view .LVU86
 313 0002 0D48     		ldr	r0, .L19
 314 0004 0D4B     		ldr	r3, .L19+4
 315 0006 0360     		str	r3, [r0]
 233:Core/Src/main.c ****   hsd.Init.ClockBypass = SDIO_CLOCK_BYPASS_DISABLE;
 316              		.loc 1 233 3 is_stmt 1 view .LVU87
 233:Core/Src/main.c ****   hsd.Init.ClockBypass = SDIO_CLOCK_BYPASS_DISABLE;
 317              		.loc 1 233 22 is_stmt 0 view .LVU88
 318 0008 0023     		movs	r3, #0
 319 000a 4360     		str	r3, [r0, #4]
 234:Core/Src/main.c ****   hsd.Init.ClockPowerSave = SDIO_CLOCK_POWER_SAVE_DISABLE;
 320              		.loc 1 234 3 is_stmt 1 view .LVU89
 234:Core/Src/main.c ****   hsd.Init.ClockPowerSave = SDIO_CLOCK_POWER_SAVE_DISABLE;
 321              		.loc 1 234 24 is_stmt 0 view .LVU90
 322 000c 8360     		str	r3, [r0, #8]
 235:Core/Src/main.c ****   hsd.Init.BusWide = SDIO_BUS_WIDE_4B;
 323              		.loc 1 235 3 is_stmt 1 view .LVU91
 235:Core/Src/main.c ****   hsd.Init.BusWide = SDIO_BUS_WIDE_4B;
 324              		.loc 1 235 27 is_stmt 0 view .LVU92
 325 000e C360     		str	r3, [r0, #12]
 236:Core/Src/main.c ****   hsd.Init.HardwareFlowControl = SDIO_HARDWARE_FLOW_CONTROL_DISABLE;
 326              		.loc 1 236 3 is_stmt 1 view .LVU93
 236:Core/Src/main.c ****   hsd.Init.HardwareFlowControl = SDIO_HARDWARE_FLOW_CONTROL_DISABLE;
 327              		.loc 1 236 20 is_stmt 0 view .LVU94
 328 0010 4FF40062 		mov	r2, #2048
 329 0014 0261     		str	r2, [r0, #16]
 237:Core/Src/main.c ****   hsd.Init.ClockDiv = 0;
 330              		.loc 1 237 3 is_stmt 1 view .LVU95
 237:Core/Src/main.c ****   hsd.Init.ClockDiv = 0;
 331              		.loc 1 237 32 is_stmt 0 view .LVU96
 332 0016 4361     		str	r3, [r0, #20]
 238:Core/Src/main.c ****   if (HAL_SD_Init(&hsd) != HAL_OK)
 333              		.loc 1 238 3 is_stmt 1 view .LVU97
 238:Core/Src/main.c ****   if (HAL_SD_Init(&hsd) != HAL_OK)
 334              		.loc 1 238 21 is_stmt 0 view .LVU98
 335 0018 8361     		str	r3, [r0, #24]
 239:Core/Src/main.c ****   {
 336              		.loc 1 239 3 is_stmt 1 view .LVU99
 239:Core/Src/main.c ****   {
 337              		.loc 1 239 7 is_stmt 0 view .LVU100
 338 001a FFF7FEFF 		bl	HAL_SD_Init
ARM GAS  C:\Users\lukas\AppData\Local\Temp\ccFZ7lQg.s 			page 20


 339              	.LVL5:
 239:Core/Src/main.c ****   {
 340              		.loc 1 239 6 view .LVU101
 341 001e 30B9     		cbnz	r0, .L17
 243:Core/Src/main.c ****   {
 342              		.loc 1 243 3 is_stmt 1 view .LVU102
 243:Core/Src/main.c ****   {
 343              		.loc 1 243 7 is_stmt 0 view .LVU103
 344 0020 4FF40061 		mov	r1, #2048
 345 0024 0448     		ldr	r0, .L19
 346 0026 FFF7FEFF 		bl	HAL_SD_ConfigWideBusOperation
 347              	.LVL6:
 243:Core/Src/main.c ****   {
 348              		.loc 1 243 6 view .LVU104
 349 002a 10B9     		cbnz	r0, .L18
 251:Core/Src/main.c **** 
 350              		.loc 1 251 1 view .LVU105
 351 002c 08BD     		pop	{r3, pc}
 352              	.L17:
 241:Core/Src/main.c ****   }
 353              		.loc 1 241 5 is_stmt 1 view .LVU106
 354 002e FFF7FEFF 		bl	Error_Handler
 355              	.LVL7:
 356              	.L18:
 245:Core/Src/main.c ****   }
 357              		.loc 1 245 5 view .LVU107
 358 0032 FFF7FEFF 		bl	Error_Handler
 359              	.LVL8:
 360              	.L20:
 361 0036 00BF     		.align	2
 362              	.L19:
 363 0038 00000000 		.word	.LANCHOR1
 364 003c 002C0140 		.word	1073818624
 365              		.cfi_endproc
 366              	.LFE137:
 368              		.section	.text.MX_TIM2_Init,"ax",%progbits
 369              		.align	1
 370              		.syntax unified
 371              		.thumb
 372              		.thumb_func
 374              	MX_TIM2_Init:
 375              	.LFB138:
 259:Core/Src/main.c **** 
 376              		.loc 1 259 1 view -0
 377              		.cfi_startproc
 378              		@ args = 0, pretend = 0, frame = 56
 379              		@ frame_needed = 0, uses_anonymous_args = 0
 380 0000 00B5     		push	{lr}
 381              	.LCFI5:
 382              		.cfi_def_cfa_offset 4
 383              		.cfi_offset 14, -4
 384 0002 8FB0     		sub	sp, sp, #60
 385              	.LCFI6:
 386              		.cfi_def_cfa_offset 64
 265:Core/Src/main.c ****   TIM_MasterConfigTypeDef sMasterConfig = {0};
 387              		.loc 1 265 3 view .LVU109
 265:Core/Src/main.c ****   TIM_MasterConfigTypeDef sMasterConfig = {0};
ARM GAS  C:\Users\lukas\AppData\Local\Temp\ccFZ7lQg.s 			page 21


 388              		.loc 1 265 26 is_stmt 0 view .LVU110
 389 0004 0023     		movs	r3, #0
 390 0006 0A93     		str	r3, [sp, #40]
 391 0008 0B93     		str	r3, [sp, #44]
 392 000a 0C93     		str	r3, [sp, #48]
 393 000c 0D93     		str	r3, [sp, #52]
 266:Core/Src/main.c ****   TIM_OC_InitTypeDef sConfigOC = {0};
 394              		.loc 1 266 3 is_stmt 1 view .LVU111
 266:Core/Src/main.c ****   TIM_OC_InitTypeDef sConfigOC = {0};
 395              		.loc 1 266 27 is_stmt 0 view .LVU112
 396 000e 0893     		str	r3, [sp, #32]
 397 0010 0993     		str	r3, [sp, #36]
 267:Core/Src/main.c **** 
 398              		.loc 1 267 3 is_stmt 1 view .LVU113
 267:Core/Src/main.c **** 
 399              		.loc 1 267 22 is_stmt 0 view .LVU114
 400 0012 0193     		str	r3, [sp, #4]
 401 0014 0293     		str	r3, [sp, #8]
 402 0016 0393     		str	r3, [sp, #12]
 403 0018 0493     		str	r3, [sp, #16]
 404 001a 0593     		str	r3, [sp, #20]
 405 001c 0693     		str	r3, [sp, #24]
 406 001e 0793     		str	r3, [sp, #28]
 272:Core/Src/main.c ****   htim2.Init.Prescaler = 8400-1;
 407              		.loc 1 272 3 is_stmt 1 view .LVU115
 272:Core/Src/main.c ****   htim2.Init.Prescaler = 8400-1;
 408              		.loc 1 272 18 is_stmt 0 view .LVU116
 409 0020 1E48     		ldr	r0, .L33
 410 0022 4FF08042 		mov	r2, #1073741824
 411 0026 0260     		str	r2, [r0]
 273:Core/Src/main.c ****   htim2.Init.CounterMode = TIM_COUNTERMODE_UP;
 412              		.loc 1 273 3 is_stmt 1 view .LVU117
 273:Core/Src/main.c ****   htim2.Init.CounterMode = TIM_COUNTERMODE_UP;
 413              		.loc 1 273 24 is_stmt 0 view .LVU118
 414 0028 42F2CF02 		movw	r2, #8399
 415 002c 4260     		str	r2, [r0, #4]
 274:Core/Src/main.c ****   htim2.Init.Period = 100-1;
 416              		.loc 1 274 3 is_stmt 1 view .LVU119
 274:Core/Src/main.c ****   htim2.Init.Period = 100-1;
 417              		.loc 1 274 26 is_stmt 0 view .LVU120
 418 002e 8360     		str	r3, [r0, #8]
 275:Core/Src/main.c ****   htim2.Init.ClockDivision = TIM_CLOCKDIVISION_DIV1;
 419              		.loc 1 275 3 is_stmt 1 view .LVU121
 275:Core/Src/main.c ****   htim2.Init.ClockDivision = TIM_CLOCKDIVISION_DIV1;
 420              		.loc 1 275 21 is_stmt 0 view .LVU122
 421 0030 6322     		movs	r2, #99
 422 0032 C260     		str	r2, [r0, #12]
 276:Core/Src/main.c ****   htim2.Init.AutoReloadPreload = TIM_AUTORELOAD_PRELOAD_DISABLE;
 423              		.loc 1 276 3 is_stmt 1 view .LVU123
 276:Core/Src/main.c ****   htim2.Init.AutoReloadPreload = TIM_AUTORELOAD_PRELOAD_DISABLE;
 424              		.loc 1 276 28 is_stmt 0 view .LVU124
 425 0034 0361     		str	r3, [r0, #16]
 277:Core/Src/main.c ****   if (HAL_TIM_Base_Init(&htim2) != HAL_OK)
 426              		.loc 1 277 3 is_stmt 1 view .LVU125
 277:Core/Src/main.c ****   if (HAL_TIM_Base_Init(&htim2) != HAL_OK)
 427              		.loc 1 277 32 is_stmt 0 view .LVU126
 428 0036 8361     		str	r3, [r0, #24]
ARM GAS  C:\Users\lukas\AppData\Local\Temp\ccFZ7lQg.s 			page 22


 278:Core/Src/main.c ****   {
 429              		.loc 1 278 3 is_stmt 1 view .LVU127
 278:Core/Src/main.c ****   {
 430              		.loc 1 278 7 is_stmt 0 view .LVU128
 431 0038 FFF7FEFF 		bl	HAL_TIM_Base_Init
 432              	.LVL9:
 278:Core/Src/main.c ****   {
 433              		.loc 1 278 6 view .LVU129
 434 003c 20BB     		cbnz	r0, .L28
 282:Core/Src/main.c ****   if (HAL_TIM_ConfigClockSource(&htim2, &sClockSourceConfig) != HAL_OK)
 435              		.loc 1 282 3 is_stmt 1 view .LVU130
 282:Core/Src/main.c ****   if (HAL_TIM_ConfigClockSource(&htim2, &sClockSourceConfig) != HAL_OK)
 436              		.loc 1 282 34 is_stmt 0 view .LVU131
 437 003e 4FF48053 		mov	r3, #4096
 438 0042 0A93     		str	r3, [sp, #40]
 283:Core/Src/main.c ****   {
 439              		.loc 1 283 3 is_stmt 1 view .LVU132
 283:Core/Src/main.c ****   {
 440              		.loc 1 283 7 is_stmt 0 view .LVU133
 441 0044 0AA9     		add	r1, sp, #40
 442 0046 1548     		ldr	r0, .L33
 443 0048 FFF7FEFF 		bl	HAL_TIM_ConfigClockSource
 444              	.LVL10:
 283:Core/Src/main.c ****   {
 445              		.loc 1 283 6 view .LVU134
 446 004c F0B9     		cbnz	r0, .L29
 287:Core/Src/main.c ****   {
 447              		.loc 1 287 3 is_stmt 1 view .LVU135
 287:Core/Src/main.c ****   {
 448              		.loc 1 287 7 is_stmt 0 view .LVU136
 449 004e 1348     		ldr	r0, .L33
 450 0050 FFF7FEFF 		bl	HAL_TIM_PWM_Init
 451              	.LVL11:
 287:Core/Src/main.c ****   {
 452              		.loc 1 287 6 view .LVU137
 453 0054 E0B9     		cbnz	r0, .L30
 291:Core/Src/main.c ****   sMasterConfig.MasterSlaveMode = TIM_MASTERSLAVEMODE_DISABLE;
 454              		.loc 1 291 3 is_stmt 1 view .LVU138
 291:Core/Src/main.c ****   sMasterConfig.MasterSlaveMode = TIM_MASTERSLAVEMODE_DISABLE;
 455              		.loc 1 291 37 is_stmt 0 view .LVU139
 456 0056 0023     		movs	r3, #0
 457 0058 0893     		str	r3, [sp, #32]
 292:Core/Src/main.c ****   if (HAL_TIMEx_MasterConfigSynchronization(&htim2, &sMasterConfig) != HAL_OK)
 458              		.loc 1 292 3 is_stmt 1 view .LVU140
 292:Core/Src/main.c ****   if (HAL_TIMEx_MasterConfigSynchronization(&htim2, &sMasterConfig) != HAL_OK)
 459              		.loc 1 292 33 is_stmt 0 view .LVU141
 460 005a 0993     		str	r3, [sp, #36]
 293:Core/Src/main.c ****   {
 461              		.loc 1 293 3 is_stmt 1 view .LVU142
 293:Core/Src/main.c ****   {
 462              		.loc 1 293 7 is_stmt 0 view .LVU143
 463 005c 08A9     		add	r1, sp, #32
 464 005e 0F48     		ldr	r0, .L33
 465 0060 FFF7FEFF 		bl	HAL_TIMEx_MasterConfigSynchronization
 466              	.LVL12:
 293:Core/Src/main.c ****   {
 467              		.loc 1 293 6 view .LVU144
ARM GAS  C:\Users\lukas\AppData\Local\Temp\ccFZ7lQg.s 			page 23


 468 0064 B0B9     		cbnz	r0, .L31
 297:Core/Src/main.c ****   sConfigOC.Pulse = 0;
 469              		.loc 1 297 3 is_stmt 1 view .LVU145
 297:Core/Src/main.c ****   sConfigOC.Pulse = 0;
 470              		.loc 1 297 20 is_stmt 0 view .LVU146
 471 0066 6023     		movs	r3, #96
 472 0068 0193     		str	r3, [sp, #4]
 298:Core/Src/main.c ****   sConfigOC.OCPolarity = TIM_OCPOLARITY_HIGH;
 473              		.loc 1 298 3 is_stmt 1 view .LVU147
 298:Core/Src/main.c ****   sConfigOC.OCPolarity = TIM_OCPOLARITY_HIGH;
 474              		.loc 1 298 19 is_stmt 0 view .LVU148
 475 006a 0022     		movs	r2, #0
 476 006c 0292     		str	r2, [sp, #8]
 299:Core/Src/main.c ****   sConfigOC.OCFastMode = TIM_OCFAST_DISABLE;
 477              		.loc 1 299 3 is_stmt 1 view .LVU149
 299:Core/Src/main.c ****   sConfigOC.OCFastMode = TIM_OCFAST_DISABLE;
 478              		.loc 1 299 24 is_stmt 0 view .LVU150
 479 006e 0392     		str	r2, [sp, #12]
 300:Core/Src/main.c ****   if (HAL_TIM_PWM_ConfigChannel(&htim2, &sConfigOC, TIM_CHANNEL_1) != HAL_OK)
 480              		.loc 1 300 3 is_stmt 1 view .LVU151
 300:Core/Src/main.c ****   if (HAL_TIM_PWM_ConfigChannel(&htim2, &sConfigOC, TIM_CHANNEL_1) != HAL_OK)
 481              		.loc 1 300 24 is_stmt 0 view .LVU152
 482 0070 0592     		str	r2, [sp, #20]
 301:Core/Src/main.c ****   {
 483              		.loc 1 301 3 is_stmt 1 view .LVU153
 301:Core/Src/main.c ****   {
 484              		.loc 1 301 7 is_stmt 0 view .LVU154
 485 0072 01A9     		add	r1, sp, #4
 486 0074 0948     		ldr	r0, .L33
 487 0076 FFF7FEFF 		bl	HAL_TIM_PWM_ConfigChannel
 488              	.LVL13:
 301:Core/Src/main.c ****   {
 489              		.loc 1 301 6 view .LVU155
 490 007a 68B9     		cbnz	r0, .L32
 308:Core/Src/main.c **** 
 491              		.loc 1 308 3 is_stmt 1 view .LVU156
 492 007c 0748     		ldr	r0, .L33
 493 007e FFF7FEFF 		bl	HAL_TIM_MspPostInit
 494              	.LVL14:
 310:Core/Src/main.c **** 
 495              		.loc 1 310 1 is_stmt 0 view .LVU157
 496 0082 0FB0     		add	sp, sp, #60
 497              	.LCFI7:
 498              		.cfi_remember_state
 499              		.cfi_def_cfa_offset 4
 500              		@ sp needed
 501 0084 5DF804FB 		ldr	pc, [sp], #4
 502              	.L28:
 503              	.LCFI8:
 504              		.cfi_restore_state
 280:Core/Src/main.c ****   }
 505              		.loc 1 280 5 is_stmt 1 view .LVU158
 506 0088 FFF7FEFF 		bl	Error_Handler
 507              	.LVL15:
 508              	.L29:
 285:Core/Src/main.c ****   }
 509              		.loc 1 285 5 view .LVU159
ARM GAS  C:\Users\lukas\AppData\Local\Temp\ccFZ7lQg.s 			page 24


 510 008c FFF7FEFF 		bl	Error_Handler
 511              	.LVL16:
 512              	.L30:
 289:Core/Src/main.c ****   }
 513              		.loc 1 289 5 view .LVU160
 514 0090 FFF7FEFF 		bl	Error_Handler
 515              	.LVL17:
 516              	.L31:
 295:Core/Src/main.c ****   }
 517              		.loc 1 295 5 view .LVU161
 518 0094 FFF7FEFF 		bl	Error_Handler
 519              	.LVL18:
 520              	.L32:
 303:Core/Src/main.c ****   }
 521              		.loc 1 303 5 view .LVU162
 522 0098 FFF7FEFF 		bl	Error_Handler
 523              	.LVL19:
 524              	.L34:
 525              		.align	2
 526              	.L33:
 527 009c 00000000 		.word	.LANCHOR2
 528              		.cfi_endproc
 529              	.LFE138:
 531              		.section	.text.MX_TIM3_Init,"ax",%progbits
 532              		.align	1
 533              		.syntax unified
 534              		.thumb
 535              		.thumb_func
 537              	MX_TIM3_Init:
 538              	.LFB139:
 318:Core/Src/main.c **** 
 539              		.loc 1 318 1 view -0
 540              		.cfi_startproc
 541              		@ args = 0, pretend = 0, frame = 56
 542              		@ frame_needed = 0, uses_anonymous_args = 0
 543 0000 00B5     		push	{lr}
 544              	.LCFI9:
 545              		.cfi_def_cfa_offset 4
 546              		.cfi_offset 14, -4
 547 0002 8FB0     		sub	sp, sp, #60
 548              	.LCFI10:
 549              		.cfi_def_cfa_offset 64
 324:Core/Src/main.c ****   TIM_MasterConfigTypeDef sMasterConfig = {0};
 550              		.loc 1 324 3 view .LVU164
 324:Core/Src/main.c ****   TIM_MasterConfigTypeDef sMasterConfig = {0};
 551              		.loc 1 324 26 is_stmt 0 view .LVU165
 552 0004 0023     		movs	r3, #0
 553 0006 0A93     		str	r3, [sp, #40]
 554 0008 0B93     		str	r3, [sp, #44]
 555 000a 0C93     		str	r3, [sp, #48]
 556 000c 0D93     		str	r3, [sp, #52]
 325:Core/Src/main.c ****   TIM_OC_InitTypeDef sConfigOC = {0};
 557              		.loc 1 325 3 is_stmt 1 view .LVU166
 325:Core/Src/main.c ****   TIM_OC_InitTypeDef sConfigOC = {0};
 558              		.loc 1 325 27 is_stmt 0 view .LVU167
 559 000e 0893     		str	r3, [sp, #32]
 560 0010 0993     		str	r3, [sp, #36]
ARM GAS  C:\Users\lukas\AppData\Local\Temp\ccFZ7lQg.s 			page 25


 326:Core/Src/main.c **** 
 561              		.loc 1 326 3 is_stmt 1 view .LVU168
 326:Core/Src/main.c **** 
 562              		.loc 1 326 22 is_stmt 0 view .LVU169
 563 0012 0193     		str	r3, [sp, #4]
 564 0014 0293     		str	r3, [sp, #8]
 565 0016 0393     		str	r3, [sp, #12]
 566 0018 0493     		str	r3, [sp, #16]
 567 001a 0593     		str	r3, [sp, #20]
 568 001c 0693     		str	r3, [sp, #24]
 569 001e 0793     		str	r3, [sp, #28]
 331:Core/Src/main.c ****   htim3.Init.Prescaler = 8400-1;
 570              		.loc 1 331 3 is_stmt 1 view .LVU170
 331:Core/Src/main.c ****   htim3.Init.Prescaler = 8400-1;
 571              		.loc 1 331 18 is_stmt 0 view .LVU171
 572 0020 1E48     		ldr	r0, .L47
 573 0022 1F4A     		ldr	r2, .L47+4
 574 0024 0260     		str	r2, [r0]
 332:Core/Src/main.c ****   htim3.Init.CounterMode = TIM_COUNTERMODE_UP;
 575              		.loc 1 332 3 is_stmt 1 view .LVU172
 332:Core/Src/main.c ****   htim3.Init.CounterMode = TIM_COUNTERMODE_UP;
 576              		.loc 1 332 24 is_stmt 0 view .LVU173
 577 0026 42F2CF02 		movw	r2, #8399
 578 002a 4260     		str	r2, [r0, #4]
 333:Core/Src/main.c ****   htim3.Init.Period = 100-1;
 579              		.loc 1 333 3 is_stmt 1 view .LVU174
 333:Core/Src/main.c ****   htim3.Init.Period = 100-1;
 580              		.loc 1 333 26 is_stmt 0 view .LVU175
 581 002c 8360     		str	r3, [r0, #8]
 334:Core/Src/main.c ****   htim3.Init.ClockDivision = TIM_CLOCKDIVISION_DIV1;
 582              		.loc 1 334 3 is_stmt 1 view .LVU176
 334:Core/Src/main.c ****   htim3.Init.ClockDivision = TIM_CLOCKDIVISION_DIV1;
 583              		.loc 1 334 21 is_stmt 0 view .LVU177
 584 002e 6322     		movs	r2, #99
 585 0030 C260     		str	r2, [r0, #12]
 335:Core/Src/main.c ****   htim3.Init.AutoReloadPreload = TIM_AUTORELOAD_PRELOAD_DISABLE;
 586              		.loc 1 335 3 is_stmt 1 view .LVU178
 335:Core/Src/main.c ****   htim3.Init.AutoReloadPreload = TIM_AUTORELOAD_PRELOAD_DISABLE;
 587              		.loc 1 335 28 is_stmt 0 view .LVU179
 588 0032 0361     		str	r3, [r0, #16]
 336:Core/Src/main.c ****   if (HAL_TIM_Base_Init(&htim3) != HAL_OK)
 589              		.loc 1 336 3 is_stmt 1 view .LVU180
 336:Core/Src/main.c ****   if (HAL_TIM_Base_Init(&htim3) != HAL_OK)
 590              		.loc 1 336 32 is_stmt 0 view .LVU181
 591 0034 8361     		str	r3, [r0, #24]
 337:Core/Src/main.c ****   {
 592              		.loc 1 337 3 is_stmt 1 view .LVU182
 337:Core/Src/main.c ****   {
 593              		.loc 1 337 7 is_stmt 0 view .LVU183
 594 0036 FFF7FEFF 		bl	HAL_TIM_Base_Init
 595              	.LVL20:
 337:Core/Src/main.c ****   {
 596              		.loc 1 337 6 view .LVU184
 597 003a 20BB     		cbnz	r0, .L42
 341:Core/Src/main.c ****   if (HAL_TIM_ConfigClockSource(&htim3, &sClockSourceConfig) != HAL_OK)
 598              		.loc 1 341 3 is_stmt 1 view .LVU185
 341:Core/Src/main.c ****   if (HAL_TIM_ConfigClockSource(&htim3, &sClockSourceConfig) != HAL_OK)
ARM GAS  C:\Users\lukas\AppData\Local\Temp\ccFZ7lQg.s 			page 26


 599              		.loc 1 341 34 is_stmt 0 view .LVU186
 600 003c 4FF48053 		mov	r3, #4096
 601 0040 0A93     		str	r3, [sp, #40]
 342:Core/Src/main.c ****   {
 602              		.loc 1 342 3 is_stmt 1 view .LVU187
 342:Core/Src/main.c ****   {
 603              		.loc 1 342 7 is_stmt 0 view .LVU188
 604 0042 0AA9     		add	r1, sp, #40
 605 0044 1548     		ldr	r0, .L47
 606 0046 FFF7FEFF 		bl	HAL_TIM_ConfigClockSource
 607              	.LVL21:
 342:Core/Src/main.c ****   {
 608              		.loc 1 342 6 view .LVU189
 609 004a F0B9     		cbnz	r0, .L43
 346:Core/Src/main.c ****   {
 610              		.loc 1 346 3 is_stmt 1 view .LVU190
 346:Core/Src/main.c ****   {
 611              		.loc 1 346 7 is_stmt 0 view .LVU191
 612 004c 1348     		ldr	r0, .L47
 613 004e FFF7FEFF 		bl	HAL_TIM_PWM_Init
 614              	.LVL22:
 346:Core/Src/main.c ****   {
 615              		.loc 1 346 6 view .LVU192
 616 0052 E0B9     		cbnz	r0, .L44
 350:Core/Src/main.c ****   sMasterConfig.MasterSlaveMode = TIM_MASTERSLAVEMODE_DISABLE;
 617              		.loc 1 350 3 is_stmt 1 view .LVU193
 350:Core/Src/main.c ****   sMasterConfig.MasterSlaveMode = TIM_MASTERSLAVEMODE_DISABLE;
 618              		.loc 1 350 37 is_stmt 0 view .LVU194
 619 0054 0023     		movs	r3, #0
 620 0056 0893     		str	r3, [sp, #32]
 351:Core/Src/main.c ****   if (HAL_TIMEx_MasterConfigSynchronization(&htim3, &sMasterConfig) != HAL_OK)
 621              		.loc 1 351 3 is_stmt 1 view .LVU195
 351:Core/Src/main.c ****   if (HAL_TIMEx_MasterConfigSynchronization(&htim3, &sMasterConfig) != HAL_OK)
 622              		.loc 1 351 33 is_stmt 0 view .LVU196
 623 0058 0993     		str	r3, [sp, #36]
 352:Core/Src/main.c ****   {
 624              		.loc 1 352 3 is_stmt 1 view .LVU197
 352:Core/Src/main.c ****   {
 625              		.loc 1 352 7 is_stmt 0 view .LVU198
 626 005a 08A9     		add	r1, sp, #32
 627 005c 0F48     		ldr	r0, .L47
 628 005e FFF7FEFF 		bl	HAL_TIMEx_MasterConfigSynchronization
 629              	.LVL23:
 352:Core/Src/main.c ****   {
 630              		.loc 1 352 6 view .LVU199
 631 0062 B0B9     		cbnz	r0, .L45
 356:Core/Src/main.c ****   sConfigOC.Pulse = 0;
 632              		.loc 1 356 3 is_stmt 1 view .LVU200
 356:Core/Src/main.c ****   sConfigOC.Pulse = 0;
 633              		.loc 1 356 20 is_stmt 0 view .LVU201
 634 0064 6023     		movs	r3, #96
 635 0066 0193     		str	r3, [sp, #4]
 357:Core/Src/main.c ****   sConfigOC.OCPolarity = TIM_OCPOLARITY_HIGH;
 636              		.loc 1 357 3 is_stmt 1 view .LVU202
 357:Core/Src/main.c ****   sConfigOC.OCPolarity = TIM_OCPOLARITY_HIGH;
 637              		.loc 1 357 19 is_stmt 0 view .LVU203
 638 0068 0022     		movs	r2, #0
ARM GAS  C:\Users\lukas\AppData\Local\Temp\ccFZ7lQg.s 			page 27


 639 006a 0292     		str	r2, [sp, #8]
 358:Core/Src/main.c ****   sConfigOC.OCFastMode = TIM_OCFAST_DISABLE;
 640              		.loc 1 358 3 is_stmt 1 view .LVU204
 358:Core/Src/main.c ****   sConfigOC.OCFastMode = TIM_OCFAST_DISABLE;
 641              		.loc 1 358 24 is_stmt 0 view .LVU205
 642 006c 0392     		str	r2, [sp, #12]
 359:Core/Src/main.c ****   if (HAL_TIM_PWM_ConfigChannel(&htim3, &sConfigOC, TIM_CHANNEL_1) != HAL_OK)
 643              		.loc 1 359 3 is_stmt 1 view .LVU206
 359:Core/Src/main.c ****   if (HAL_TIM_PWM_ConfigChannel(&htim3, &sConfigOC, TIM_CHANNEL_1) != HAL_OK)
 644              		.loc 1 359 24 is_stmt 0 view .LVU207
 645 006e 0592     		str	r2, [sp, #20]
 360:Core/Src/main.c ****   {
 646              		.loc 1 360 3 is_stmt 1 view .LVU208
 360:Core/Src/main.c ****   {
 647              		.loc 1 360 7 is_stmt 0 view .LVU209
 648 0070 01A9     		add	r1, sp, #4
 649 0072 0A48     		ldr	r0, .L47
 650 0074 FFF7FEFF 		bl	HAL_TIM_PWM_ConfigChannel
 651              	.LVL24:
 360:Core/Src/main.c ****   {
 652              		.loc 1 360 6 view .LVU210
 653 0078 68B9     		cbnz	r0, .L46
 367:Core/Src/main.c **** 
 654              		.loc 1 367 3 is_stmt 1 view .LVU211
 655 007a 0848     		ldr	r0, .L47
 656 007c FFF7FEFF 		bl	HAL_TIM_MspPostInit
 657              	.LVL25:
 369:Core/Src/main.c **** 
 658              		.loc 1 369 1 is_stmt 0 view .LVU212
 659 0080 0FB0     		add	sp, sp, #60
 660              	.LCFI11:
 661              		.cfi_remember_state
 662              		.cfi_def_cfa_offset 4
 663              		@ sp needed
 664 0082 5DF804FB 		ldr	pc, [sp], #4
 665              	.L42:
 666              	.LCFI12:
 667              		.cfi_restore_state
 339:Core/Src/main.c ****   }
 668              		.loc 1 339 5 is_stmt 1 view .LVU213
 669 0086 FFF7FEFF 		bl	Error_Handler
 670              	.LVL26:
 671              	.L43:
 344:Core/Src/main.c ****   }
 672              		.loc 1 344 5 view .LVU214
 673 008a FFF7FEFF 		bl	Error_Handler
 674              	.LVL27:
 675              	.L44:
 348:Core/Src/main.c ****   }
 676              		.loc 1 348 5 view .LVU215
 677 008e FFF7FEFF 		bl	Error_Handler
 678              	.LVL28:
 679              	.L45:
 354:Core/Src/main.c ****   }
 680              		.loc 1 354 5 view .LVU216
 681 0092 FFF7FEFF 		bl	Error_Handler
 682              	.LVL29:
ARM GAS  C:\Users\lukas\AppData\Local\Temp\ccFZ7lQg.s 			page 28


 683              	.L46:
 362:Core/Src/main.c ****   }
 684              		.loc 1 362 5 view .LVU217
 685 0096 FFF7FEFF 		bl	Error_Handler
 686              	.LVL30:
 687              	.L48:
 688 009a 00BF     		.align	2
 689              	.L47:
 690 009c 00000000 		.word	.LANCHOR3
 691 00a0 00040040 		.word	1073742848
 692              		.cfi_endproc
 693              	.LFE139:
 695              		.section	.text.MX_TIM5_Init,"ax",%progbits
 696              		.align	1
 697              		.syntax unified
 698              		.thumb
 699              		.thumb_func
 701              	MX_TIM5_Init:
 702              	.LFB140:
 377:Core/Src/main.c **** 
 703              		.loc 1 377 1 view -0
 704              		.cfi_startproc
 705              		@ args = 0, pretend = 0, frame = 56
 706              		@ frame_needed = 0, uses_anonymous_args = 0
 707 0000 00B5     		push	{lr}
 708              	.LCFI13:
 709              		.cfi_def_cfa_offset 4
 710              		.cfi_offset 14, -4
 711 0002 8FB0     		sub	sp, sp, #60
 712              	.LCFI14:
 713              		.cfi_def_cfa_offset 64
 383:Core/Src/main.c ****   TIM_MasterConfigTypeDef sMasterConfig = {0};
 714              		.loc 1 383 3 view .LVU219
 383:Core/Src/main.c ****   TIM_MasterConfigTypeDef sMasterConfig = {0};
 715              		.loc 1 383 26 is_stmt 0 view .LVU220
 716 0004 0023     		movs	r3, #0
 717 0006 0A93     		str	r3, [sp, #40]
 718 0008 0B93     		str	r3, [sp, #44]
 719 000a 0C93     		str	r3, [sp, #48]
 720 000c 0D93     		str	r3, [sp, #52]
 384:Core/Src/main.c ****   TIM_OC_InitTypeDef sConfigOC = {0};
 721              		.loc 1 384 3 is_stmt 1 view .LVU221
 384:Core/Src/main.c ****   TIM_OC_InitTypeDef sConfigOC = {0};
 722              		.loc 1 384 27 is_stmt 0 view .LVU222
 723 000e 0893     		str	r3, [sp, #32]
 724 0010 0993     		str	r3, [sp, #36]
 385:Core/Src/main.c **** 
 725              		.loc 1 385 3 is_stmt 1 view .LVU223
 385:Core/Src/main.c **** 
 726              		.loc 1 385 22 is_stmt 0 view .LVU224
 727 0012 0193     		str	r3, [sp, #4]
 728 0014 0293     		str	r3, [sp, #8]
 729 0016 0393     		str	r3, [sp, #12]
 730 0018 0493     		str	r3, [sp, #16]
 731 001a 0593     		str	r3, [sp, #20]
 732 001c 0693     		str	r3, [sp, #24]
 733 001e 0793     		str	r3, [sp, #28]
ARM GAS  C:\Users\lukas\AppData\Local\Temp\ccFZ7lQg.s 			page 29


 390:Core/Src/main.c ****   htim5.Init.Prescaler = 8400-1;
 734              		.loc 1 390 3 is_stmt 1 view .LVU225
 390:Core/Src/main.c ****   htim5.Init.Prescaler = 8400-1;
 735              		.loc 1 390 18 is_stmt 0 view .LVU226
 736 0020 3048     		ldr	r0, .L69
 737 0022 314A     		ldr	r2, .L69+4
 738 0024 0260     		str	r2, [r0]
 391:Core/Src/main.c ****   htim5.Init.CounterMode = TIM_COUNTERMODE_UP;
 739              		.loc 1 391 3 is_stmt 1 view .LVU227
 391:Core/Src/main.c ****   htim5.Init.CounterMode = TIM_COUNTERMODE_UP;
 740              		.loc 1 391 24 is_stmt 0 view .LVU228
 741 0026 42F2CF02 		movw	r2, #8399
 742 002a 4260     		str	r2, [r0, #4]
 392:Core/Src/main.c ****   htim5.Init.Period = 100-1;
 743              		.loc 1 392 3 is_stmt 1 view .LVU229
 392:Core/Src/main.c ****   htim5.Init.Period = 100-1;
 744              		.loc 1 392 26 is_stmt 0 view .LVU230
 745 002c 8360     		str	r3, [r0, #8]
 393:Core/Src/main.c ****   htim5.Init.ClockDivision = TIM_CLOCKDIVISION_DIV1;
 746              		.loc 1 393 3 is_stmt 1 view .LVU231
 393:Core/Src/main.c ****   htim5.Init.ClockDivision = TIM_CLOCKDIVISION_DIV1;
 747              		.loc 1 393 21 is_stmt 0 view .LVU232
 748 002e 6322     		movs	r2, #99
 749 0030 C260     		str	r2, [r0, #12]
 394:Core/Src/main.c ****   htim5.Init.AutoReloadPreload = TIM_AUTORELOAD_PRELOAD_DISABLE;
 750              		.loc 1 394 3 is_stmt 1 view .LVU233
 394:Core/Src/main.c ****   htim5.Init.AutoReloadPreload = TIM_AUTORELOAD_PRELOAD_DISABLE;
 751              		.loc 1 394 28 is_stmt 0 view .LVU234
 752 0032 0361     		str	r3, [r0, #16]
 395:Core/Src/main.c ****   if (HAL_TIM_Base_Init(&htim5) != HAL_OK)
 753              		.loc 1 395 3 is_stmt 1 view .LVU235
 395:Core/Src/main.c ****   if (HAL_TIM_Base_Init(&htim5) != HAL_OK)
 754              		.loc 1 395 32 is_stmt 0 view .LVU236
 755 0034 8361     		str	r3, [r0, #24]
 396:Core/Src/main.c ****   {
 756              		.loc 1 396 3 is_stmt 1 view .LVU237
 396:Core/Src/main.c ****   {
 757              		.loc 1 396 7 is_stmt 0 view .LVU238
 758 0036 FFF7FEFF 		bl	HAL_TIM_Base_Init
 759              	.LVL31:
 396:Core/Src/main.c ****   {
 760              		.loc 1 396 6 view .LVU239
 761 003a 0028     		cmp	r0, #0
 762 003c 40D1     		bne	.L60
 400:Core/Src/main.c ****   if (HAL_TIM_ConfigClockSource(&htim5, &sClockSourceConfig) != HAL_OK)
 763              		.loc 1 400 3 is_stmt 1 view .LVU240
 400:Core/Src/main.c ****   if (HAL_TIM_ConfigClockSource(&htim5, &sClockSourceConfig) != HAL_OK)
 764              		.loc 1 400 34 is_stmt 0 view .LVU241
 765 003e 4FF48053 		mov	r3, #4096
 766 0042 0A93     		str	r3, [sp, #40]
 401:Core/Src/main.c ****   {
 767              		.loc 1 401 3 is_stmt 1 view .LVU242
 401:Core/Src/main.c ****   {
 768              		.loc 1 401 7 is_stmt 0 view .LVU243
 769 0044 0AA9     		add	r1, sp, #40
 770 0046 2748     		ldr	r0, .L69
 771 0048 FFF7FEFF 		bl	HAL_TIM_ConfigClockSource
ARM GAS  C:\Users\lukas\AppData\Local\Temp\ccFZ7lQg.s 			page 30


 772              	.LVL32:
 401:Core/Src/main.c ****   {
 773              		.loc 1 401 6 view .LVU244
 774 004c 0028     		cmp	r0, #0
 775 004e 39D1     		bne	.L61
 405:Core/Src/main.c ****   {
 776              		.loc 1 405 3 is_stmt 1 view .LVU245
 405:Core/Src/main.c ****   {
 777              		.loc 1 405 7 is_stmt 0 view .LVU246
 778 0050 2448     		ldr	r0, .L69
 779 0052 FFF7FEFF 		bl	HAL_TIM_PWM_Init
 780              	.LVL33:
 405:Core/Src/main.c ****   {
 781              		.loc 1 405 6 view .LVU247
 782 0056 0028     		cmp	r0, #0
 783 0058 36D1     		bne	.L62
 409:Core/Src/main.c ****   {
 784              		.loc 1 409 3 is_stmt 1 view .LVU248
 409:Core/Src/main.c ****   {
 785              		.loc 1 409 7 is_stmt 0 view .LVU249
 786 005a 2248     		ldr	r0, .L69
 787 005c FFF7FEFF 		bl	HAL_TIM_OC_Init
 788              	.LVL34:
 409:Core/Src/main.c ****   {
 789              		.loc 1 409 6 view .LVU250
 790 0060 0028     		cmp	r0, #0
 791 0062 33D1     		bne	.L63
 413:Core/Src/main.c ****   sMasterConfig.MasterSlaveMode = TIM_MASTERSLAVEMODE_DISABLE;
 792              		.loc 1 413 3 is_stmt 1 view .LVU251
 413:Core/Src/main.c ****   sMasterConfig.MasterSlaveMode = TIM_MASTERSLAVEMODE_DISABLE;
 793              		.loc 1 413 37 is_stmt 0 view .LVU252
 794 0064 0023     		movs	r3, #0
 795 0066 0893     		str	r3, [sp, #32]
 414:Core/Src/main.c ****   if (HAL_TIMEx_MasterConfigSynchronization(&htim5, &sMasterConfig) != HAL_OK)
 796              		.loc 1 414 3 is_stmt 1 view .LVU253
 414:Core/Src/main.c ****   if (HAL_TIMEx_MasterConfigSynchronization(&htim5, &sMasterConfig) != HAL_OK)
 797              		.loc 1 414 33 is_stmt 0 view .LVU254
 798 0068 0993     		str	r3, [sp, #36]
 415:Core/Src/main.c ****   {
 799              		.loc 1 415 3 is_stmt 1 view .LVU255
 415:Core/Src/main.c ****   {
 800              		.loc 1 415 7 is_stmt 0 view .LVU256
 801 006a 08A9     		add	r1, sp, #32
 802 006c 1D48     		ldr	r0, .L69
 803 006e FFF7FEFF 		bl	HAL_TIMEx_MasterConfigSynchronization
 804              	.LVL35:
 415:Core/Src/main.c ****   {
 805              		.loc 1 415 6 view .LVU257
 806 0072 68BB     		cbnz	r0, .L64
 419:Core/Src/main.c ****   sConfigOC.Pulse = 0;
 807              		.loc 1 419 3 is_stmt 1 view .LVU258
 419:Core/Src/main.c ****   sConfigOC.Pulse = 0;
 808              		.loc 1 419 20 is_stmt 0 view .LVU259
 809 0074 6023     		movs	r3, #96
 810 0076 0193     		str	r3, [sp, #4]
 420:Core/Src/main.c ****   sConfigOC.OCPolarity = TIM_OCPOLARITY_HIGH;
 811              		.loc 1 420 3 is_stmt 1 view .LVU260
ARM GAS  C:\Users\lukas\AppData\Local\Temp\ccFZ7lQg.s 			page 31


 420:Core/Src/main.c ****   sConfigOC.OCPolarity = TIM_OCPOLARITY_HIGH;
 812              		.loc 1 420 19 is_stmt 0 view .LVU261
 813 0078 0022     		movs	r2, #0
 814 007a 0292     		str	r2, [sp, #8]
 421:Core/Src/main.c ****   sConfigOC.OCFastMode = TIM_OCFAST_DISABLE;
 815              		.loc 1 421 3 is_stmt 1 view .LVU262
 421:Core/Src/main.c ****   sConfigOC.OCFastMode = TIM_OCFAST_DISABLE;
 816              		.loc 1 421 24 is_stmt 0 view .LVU263
 817 007c 0392     		str	r2, [sp, #12]
 422:Core/Src/main.c ****   if (HAL_TIM_PWM_ConfigChannel(&htim5, &sConfigOC, TIM_CHANNEL_1) != HAL_OK)
 818              		.loc 1 422 3 is_stmt 1 view .LVU264
 422:Core/Src/main.c ****   if (HAL_TIM_PWM_ConfigChannel(&htim5, &sConfigOC, TIM_CHANNEL_1) != HAL_OK)
 819              		.loc 1 422 24 is_stmt 0 view .LVU265
 820 007e 0592     		str	r2, [sp, #20]
 423:Core/Src/main.c ****   {
 821              		.loc 1 423 3 is_stmt 1 view .LVU266
 423:Core/Src/main.c ****   {
 822              		.loc 1 423 7 is_stmt 0 view .LVU267
 823 0080 01A9     		add	r1, sp, #4
 824 0082 1848     		ldr	r0, .L69
 825 0084 FFF7FEFF 		bl	HAL_TIM_PWM_ConfigChannel
 826              	.LVL36:
 423:Core/Src/main.c ****   {
 827              		.loc 1 423 6 view .LVU268
 828 0088 20BB     		cbnz	r0, .L65
 427:Core/Src/main.c ****   {
 829              		.loc 1 427 3 is_stmt 1 view .LVU269
 427:Core/Src/main.c ****   {
 830              		.loc 1 427 7 is_stmt 0 view .LVU270
 831 008a 0422     		movs	r2, #4
 832 008c 0DEB0201 		add	r1, sp, r2
 833 0090 1448     		ldr	r0, .L69
 834 0092 FFF7FEFF 		bl	HAL_TIM_PWM_ConfigChannel
 835              	.LVL37:
 427:Core/Src/main.c ****   {
 836              		.loc 1 427 6 view .LVU271
 837 0096 F8B9     		cbnz	r0, .L66
 431:Core/Src/main.c ****   {
 838              		.loc 1 431 3 is_stmt 1 view .LVU272
 431:Core/Src/main.c ****   {
 839              		.loc 1 431 7 is_stmt 0 view .LVU273
 840 0098 0822     		movs	r2, #8
 841 009a 01A9     		add	r1, sp, #4
 842 009c 1148     		ldr	r0, .L69
 843 009e FFF7FEFF 		bl	HAL_TIM_PWM_ConfigChannel
 844              	.LVL38:
 431:Core/Src/main.c ****   {
 845              		.loc 1 431 6 view .LVU274
 846 00a2 D8B9     		cbnz	r0, .L67
 435:Core/Src/main.c ****   if (HAL_TIM_OC_ConfigChannel(&htim5, &sConfigOC, TIM_CHANNEL_4) != HAL_OK)
 847              		.loc 1 435 3 is_stmt 1 view .LVU275
 435:Core/Src/main.c ****   if (HAL_TIM_OC_ConfigChannel(&htim5, &sConfigOC, TIM_CHANNEL_4) != HAL_OK)
 848              		.loc 1 435 20 is_stmt 0 view .LVU276
 849 00a4 0023     		movs	r3, #0
 850 00a6 0193     		str	r3, [sp, #4]
 436:Core/Src/main.c ****   {
 851              		.loc 1 436 3 is_stmt 1 view .LVU277
ARM GAS  C:\Users\lukas\AppData\Local\Temp\ccFZ7lQg.s 			page 32


 436:Core/Src/main.c ****   {
 852              		.loc 1 436 7 is_stmt 0 view .LVU278
 853 00a8 0C22     		movs	r2, #12
 854 00aa 01A9     		add	r1, sp, #4
 855 00ac 0D48     		ldr	r0, .L69
 856 00ae FFF7FEFF 		bl	HAL_TIM_OC_ConfigChannel
 857              	.LVL39:
 436:Core/Src/main.c ****   {
 858              		.loc 1 436 6 view .LVU279
 859 00b2 A8B9     		cbnz	r0, .L68
 443:Core/Src/main.c **** 
 860              		.loc 1 443 3 is_stmt 1 view .LVU280
 861 00b4 0B48     		ldr	r0, .L69
 862 00b6 FFF7FEFF 		bl	HAL_TIM_MspPostInit
 863              	.LVL40:
 445:Core/Src/main.c **** 
 864              		.loc 1 445 1 is_stmt 0 view .LVU281
 865 00ba 0FB0     		add	sp, sp, #60
 866              	.LCFI15:
 867              		.cfi_remember_state
 868              		.cfi_def_cfa_offset 4
 869              		@ sp needed
 870 00bc 5DF804FB 		ldr	pc, [sp], #4
 871              	.L60:
 872              	.LCFI16:
 873              		.cfi_restore_state
 398:Core/Src/main.c ****   }
 874              		.loc 1 398 5 is_stmt 1 view .LVU282
 875 00c0 FFF7FEFF 		bl	Error_Handler
 876              	.LVL41:
 877              	.L61:
 403:Core/Src/main.c ****   }
 878              		.loc 1 403 5 view .LVU283
 879 00c4 FFF7FEFF 		bl	Error_Handler
 880              	.LVL42:
 881              	.L62:
 407:Core/Src/main.c ****   }
 882              		.loc 1 407 5 view .LVU284
 883 00c8 FFF7FEFF 		bl	Error_Handler
 884              	.LVL43:
 885              	.L63:
 411:Core/Src/main.c ****   }
 886              		.loc 1 411 5 view .LVU285
 887 00cc FFF7FEFF 		bl	Error_Handler
 888              	.LVL44:
 889              	.L64:
 417:Core/Src/main.c ****   }
 890              		.loc 1 417 5 view .LVU286
 891 00d0 FFF7FEFF 		bl	Error_Handler
 892              	.LVL45:
 893              	.L65:
 425:Core/Src/main.c ****   }
 894              		.loc 1 425 5 view .LVU287
 895 00d4 FFF7FEFF 		bl	Error_Handler
 896              	.LVL46:
 897              	.L66:
 429:Core/Src/main.c ****   }
ARM GAS  C:\Users\lukas\AppData\Local\Temp\ccFZ7lQg.s 			page 33


 898              		.loc 1 429 5 view .LVU288
 899 00d8 FFF7FEFF 		bl	Error_Handler
 900              	.LVL47:
 901              	.L67:
 433:Core/Src/main.c ****   }
 902              		.loc 1 433 5 view .LVU289
 903 00dc FFF7FEFF 		bl	Error_Handler
 904              	.LVL48:
 905              	.L68:
 438:Core/Src/main.c ****   }
 906              		.loc 1 438 5 view .LVU290
 907 00e0 FFF7FEFF 		bl	Error_Handler
 908              	.LVL49:
 909              	.L70:
 910              		.align	2
 911              	.L69:
 912 00e4 00000000 		.word	.LANCHOR4
 913 00e8 000C0040 		.word	1073744896
 914              		.cfi_endproc
 915              	.LFE140:
 917              		.section	.text.MX_USART1_UART_Init,"ax",%progbits
 918              		.align	1
 919              		.syntax unified
 920              		.thumb
 921              		.thumb_func
 923              	MX_USART1_UART_Init:
 924              	.LFB141:
 453:Core/Src/main.c **** 
 925              		.loc 1 453 1 view -0
 926              		.cfi_startproc
 927              		@ args = 0, pretend = 0, frame = 0
 928              		@ frame_needed = 0, uses_anonymous_args = 0
 929 0000 08B5     		push	{r3, lr}
 930              	.LCFI17:
 931              		.cfi_def_cfa_offset 8
 932              		.cfi_offset 3, -8
 933              		.cfi_offset 14, -4
 462:Core/Src/main.c ****   huart1.Init.BaudRate = 115200;
 934              		.loc 1 462 3 view .LVU292
 462:Core/Src/main.c ****   huart1.Init.BaudRate = 115200;
 935              		.loc 1 462 19 is_stmt 0 view .LVU293
 936 0002 0A48     		ldr	r0, .L75
 937 0004 0A4B     		ldr	r3, .L75+4
 938 0006 0360     		str	r3, [r0]
 463:Core/Src/main.c ****   huart1.Init.WordLength = UART_WORDLENGTH_8B;
 939              		.loc 1 463 3 is_stmt 1 view .LVU294
 463:Core/Src/main.c ****   huart1.Init.WordLength = UART_WORDLENGTH_8B;
 940              		.loc 1 463 24 is_stmt 0 view .LVU295
 941 0008 4FF4E133 		mov	r3, #115200
 942 000c 4360     		str	r3, [r0, #4]
 464:Core/Src/main.c ****   huart1.Init.StopBits = UART_STOPBITS_1;
 943              		.loc 1 464 3 is_stmt 1 view .LVU296
 464:Core/Src/main.c ****   huart1.Init.StopBits = UART_STOPBITS_1;
 944              		.loc 1 464 26 is_stmt 0 view .LVU297
 945 000e 0023     		movs	r3, #0
 946 0010 8360     		str	r3, [r0, #8]
 465:Core/Src/main.c ****   huart1.Init.Parity = UART_PARITY_NONE;
ARM GAS  C:\Users\lukas\AppData\Local\Temp\ccFZ7lQg.s 			page 34


 947              		.loc 1 465 3 is_stmt 1 view .LVU298
 465:Core/Src/main.c ****   huart1.Init.Parity = UART_PARITY_NONE;
 948              		.loc 1 465 24 is_stmt 0 view .LVU299
 949 0012 C360     		str	r3, [r0, #12]
 466:Core/Src/main.c ****   huart1.Init.Mode = UART_MODE_TX_RX;
 950              		.loc 1 466 3 is_stmt 1 view .LVU300
 466:Core/Src/main.c ****   huart1.Init.Mode = UART_MODE_TX_RX;
 951              		.loc 1 466 22 is_stmt 0 view .LVU301
 952 0014 0361     		str	r3, [r0, #16]
 467:Core/Src/main.c ****   huart1.Init.HwFlowCtl = UART_HWCONTROL_NONE;
 953              		.loc 1 467 3 is_stmt 1 view .LVU302
 467:Core/Src/main.c ****   huart1.Init.HwFlowCtl = UART_HWCONTROL_NONE;
 954              		.loc 1 467 20 is_stmt 0 view .LVU303
 955 0016 0C22     		movs	r2, #12
 956 0018 4261     		str	r2, [r0, #20]
 468:Core/Src/main.c ****   huart1.Init.OverSampling = UART_OVERSAMPLING_16;
 957              		.loc 1 468 3 is_stmt 1 view .LVU304
 468:Core/Src/main.c ****   huart1.Init.OverSampling = UART_OVERSAMPLING_16;
 958              		.loc 1 468 25 is_stmt 0 view .LVU305
 959 001a 8361     		str	r3, [r0, #24]
 469:Core/Src/main.c ****   if (HAL_UART_Init(&huart1) != HAL_OK)
 960              		.loc 1 469 3 is_stmt 1 view .LVU306
 469:Core/Src/main.c ****   if (HAL_UART_Init(&huart1) != HAL_OK)
 961              		.loc 1 469 28 is_stmt 0 view .LVU307
 962 001c C361     		str	r3, [r0, #28]
 470:Core/Src/main.c ****   {
 963              		.loc 1 470 3 is_stmt 1 view .LVU308
 470:Core/Src/main.c ****   {
 964              		.loc 1 470 7 is_stmt 0 view .LVU309
 965 001e FFF7FEFF 		bl	HAL_UART_Init
 966              	.LVL50:
 470:Core/Src/main.c ****   {
 967              		.loc 1 470 6 view .LVU310
 968 0022 00B9     		cbnz	r0, .L74
 478:Core/Src/main.c **** 
 969              		.loc 1 478 1 view .LVU311
 970 0024 08BD     		pop	{r3, pc}
 971              	.L74:
 472:Core/Src/main.c ****   }
 972              		.loc 1 472 5 is_stmt 1 view .LVU312
 973 0026 FFF7FEFF 		bl	Error_Handler
 974              	.LVL51:
 975              	.L76:
 976 002a 00BF     		.align	2
 977              	.L75:
 978 002c 00000000 		.word	.LANCHOR5
 979 0030 00100140 		.word	1073811456
 980              		.cfi_endproc
 981              	.LFE141:
 983              		.section	.text.MX_USART3_UART_Init,"ax",%progbits
 984              		.align	1
 985              		.syntax unified
 986              		.thumb
 987              		.thumb_func
 989              	MX_USART3_UART_Init:
 990              	.LFB142:
 486:Core/Src/main.c **** 
ARM GAS  C:\Users\lukas\AppData\Local\Temp\ccFZ7lQg.s 			page 35


 991              		.loc 1 486 1 view -0
 992              		.cfi_startproc
 993              		@ args = 0, pretend = 0, frame = 0
 994              		@ frame_needed = 0, uses_anonymous_args = 0
 995 0000 08B5     		push	{r3, lr}
 996              	.LCFI18:
 997              		.cfi_def_cfa_offset 8
 998              		.cfi_offset 3, -8
 999              		.cfi_offset 14, -4
 495:Core/Src/main.c ****   huart3.Init.BaudRate = 115200;
 1000              		.loc 1 495 3 view .LVU314
 495:Core/Src/main.c ****   huart3.Init.BaudRate = 115200;
 1001              		.loc 1 495 19 is_stmt 0 view .LVU315
 1002 0002 0A48     		ldr	r0, .L81
 1003 0004 0A4B     		ldr	r3, .L81+4
 1004 0006 0360     		str	r3, [r0]
 496:Core/Src/main.c ****   huart3.Init.WordLength = UART_WORDLENGTH_8B;
 1005              		.loc 1 496 3 is_stmt 1 view .LVU316
 496:Core/Src/main.c ****   huart3.Init.WordLength = UART_WORDLENGTH_8B;
 1006              		.loc 1 496 24 is_stmt 0 view .LVU317
 1007 0008 4FF4E133 		mov	r3, #115200
 1008 000c 4360     		str	r3, [r0, #4]
 497:Core/Src/main.c ****   huart3.Init.StopBits = UART_STOPBITS_1;
 1009              		.loc 1 497 3 is_stmt 1 view .LVU318
 497:Core/Src/main.c ****   huart3.Init.StopBits = UART_STOPBITS_1;
 1010              		.loc 1 497 26 is_stmt 0 view .LVU319
 1011 000e 0023     		movs	r3, #0
 1012 0010 8360     		str	r3, [r0, #8]
 498:Core/Src/main.c ****   huart3.Init.Parity = UART_PARITY_NONE;
 1013              		.loc 1 498 3 is_stmt 1 view .LVU320
 498:Core/Src/main.c ****   huart3.Init.Parity = UART_PARITY_NONE;
 1014              		.loc 1 498 24 is_stmt 0 view .LVU321
 1015 0012 C360     		str	r3, [r0, #12]
 499:Core/Src/main.c ****   huart3.Init.Mode = UART_MODE_TX_RX;
 1016              		.loc 1 499 3 is_stmt 1 view .LVU322
 499:Core/Src/main.c ****   huart3.Init.Mode = UART_MODE_TX_RX;
 1017              		.loc 1 499 22 is_stmt 0 view .LVU323
 1018 0014 0361     		str	r3, [r0, #16]
 500:Core/Src/main.c ****   huart3.Init.HwFlowCtl = UART_HWCONTROL_NONE;
 1019              		.loc 1 500 3 is_stmt 1 view .LVU324
 500:Core/Src/main.c ****   huart3.Init.HwFlowCtl = UART_HWCONTROL_NONE;
 1020              		.loc 1 500 20 is_stmt 0 view .LVU325
 1021 0016 0C22     		movs	r2, #12
 1022 0018 4261     		str	r2, [r0, #20]
 501:Core/Src/main.c ****   huart3.Init.OverSampling = UART_OVERSAMPLING_16;
 1023              		.loc 1 501 3 is_stmt 1 view .LVU326
 501:Core/Src/main.c ****   huart3.Init.OverSampling = UART_OVERSAMPLING_16;
 1024              		.loc 1 501 25 is_stmt 0 view .LVU327
 1025 001a 8361     		str	r3, [r0, #24]
 502:Core/Src/main.c ****   if (HAL_UART_Init(&huart3) != HAL_OK)
 1026              		.loc 1 502 3 is_stmt 1 view .LVU328
 502:Core/Src/main.c ****   if (HAL_UART_Init(&huart3) != HAL_OK)
 1027              		.loc 1 502 28 is_stmt 0 view .LVU329
 1028 001c C361     		str	r3, [r0, #28]
 503:Core/Src/main.c ****   {
 1029              		.loc 1 503 3 is_stmt 1 view .LVU330
 503:Core/Src/main.c ****   {
ARM GAS  C:\Users\lukas\AppData\Local\Temp\ccFZ7lQg.s 			page 36


 1030              		.loc 1 503 7 is_stmt 0 view .LVU331
 1031 001e FFF7FEFF 		bl	HAL_UART_Init
 1032              	.LVL52:
 503:Core/Src/main.c ****   {
 1033              		.loc 1 503 6 view .LVU332
 1034 0022 00B9     		cbnz	r0, .L80
 511:Core/Src/main.c **** 
 1035              		.loc 1 511 1 view .LVU333
 1036 0024 08BD     		pop	{r3, pc}
 1037              	.L80:
 505:Core/Src/main.c ****   }
 1038              		.loc 1 505 5 is_stmt 1 view .LVU334
 1039 0026 FFF7FEFF 		bl	Error_Handler
 1040              	.LVL53:
 1041              	.L82:
 1042 002a 00BF     		.align	2
 1043              	.L81:
 1044 002c 00000000 		.word	.LANCHOR6
 1045 0030 00480040 		.word	1073760256
 1046              		.cfi_endproc
 1047              	.LFE142:
 1049              		.section	.text.SystemClock_Config,"ax",%progbits
 1050              		.align	1
 1051              		.global	SystemClock_Config
 1052              		.syntax unified
 1053              		.thumb
 1054              		.thumb_func
 1056              	SystemClock_Config:
 1057              	.LFB135:
 143:Core/Src/main.c ****   RCC_OscInitTypeDef RCC_OscInitStruct = {0};
 1058              		.loc 1 143 1 view -0
 1059              		.cfi_startproc
 1060              		@ args = 0, pretend = 0, frame = 80
 1061              		@ frame_needed = 0, uses_anonymous_args = 0
 1062 0000 00B5     		push	{lr}
 1063              	.LCFI19:
 1064              		.cfi_def_cfa_offset 4
 1065              		.cfi_offset 14, -4
 1066 0002 95B0     		sub	sp, sp, #84
 1067              	.LCFI20:
 1068              		.cfi_def_cfa_offset 88
 144:Core/Src/main.c ****   RCC_ClkInitTypeDef RCC_ClkInitStruct = {0};
 1069              		.loc 1 144 3 view .LVU336
 144:Core/Src/main.c ****   RCC_ClkInitTypeDef RCC_ClkInitStruct = {0};
 1070              		.loc 1 144 22 is_stmt 0 view .LVU337
 1071 0004 3022     		movs	r2, #48
 1072 0006 0021     		movs	r1, #0
 1073 0008 08A8     		add	r0, sp, #32
 1074 000a FFF7FEFF 		bl	memset
 1075              	.LVL54:
 145:Core/Src/main.c **** 
 1076              		.loc 1 145 3 is_stmt 1 view .LVU338
 145:Core/Src/main.c **** 
 1077              		.loc 1 145 22 is_stmt 0 view .LVU339
 1078 000e 0023     		movs	r3, #0
 1079 0010 0393     		str	r3, [sp, #12]
 1080 0012 0493     		str	r3, [sp, #16]
ARM GAS  C:\Users\lukas\AppData\Local\Temp\ccFZ7lQg.s 			page 37


 1081 0014 0593     		str	r3, [sp, #20]
 1082 0016 0693     		str	r3, [sp, #24]
 1083 0018 0793     		str	r3, [sp, #28]
 149:Core/Src/main.c ****   __HAL_PWR_VOLTAGESCALING_CONFIG(PWR_REGULATOR_VOLTAGE_SCALE1);
 1084              		.loc 1 149 3 is_stmt 1 view .LVU340
 1085              	.LBB11:
 149:Core/Src/main.c ****   __HAL_PWR_VOLTAGESCALING_CONFIG(PWR_REGULATOR_VOLTAGE_SCALE1);
 1086              		.loc 1 149 3 view .LVU341
 1087 001a 0193     		str	r3, [sp, #4]
 149:Core/Src/main.c ****   __HAL_PWR_VOLTAGESCALING_CONFIG(PWR_REGULATOR_VOLTAGE_SCALE1);
 1088              		.loc 1 149 3 view .LVU342
 1089 001c 204A     		ldr	r2, .L89
 1090 001e 116C     		ldr	r1, [r2, #64]
 1091 0020 41F08051 		orr	r1, r1, #268435456
 1092 0024 1164     		str	r1, [r2, #64]
 149:Core/Src/main.c ****   __HAL_PWR_VOLTAGESCALING_CONFIG(PWR_REGULATOR_VOLTAGE_SCALE1);
 1093              		.loc 1 149 3 view .LVU343
 1094 0026 126C     		ldr	r2, [r2, #64]
 1095 0028 02F08052 		and	r2, r2, #268435456
 1096 002c 0192     		str	r2, [sp, #4]
 149:Core/Src/main.c ****   __HAL_PWR_VOLTAGESCALING_CONFIG(PWR_REGULATOR_VOLTAGE_SCALE1);
 1097              		.loc 1 149 3 view .LVU344
 1098 002e 019A     		ldr	r2, [sp, #4]
 1099              	.LBE11:
 149:Core/Src/main.c ****   __HAL_PWR_VOLTAGESCALING_CONFIG(PWR_REGULATOR_VOLTAGE_SCALE1);
 1100              		.loc 1 149 3 view .LVU345
 150:Core/Src/main.c **** 
 1101              		.loc 1 150 3 view .LVU346
 1102              	.LBB12:
 150:Core/Src/main.c **** 
 1103              		.loc 1 150 3 view .LVU347
 1104 0030 0293     		str	r3, [sp, #8]
 150:Core/Src/main.c **** 
 1105              		.loc 1 150 3 view .LVU348
 1106 0032 1C4B     		ldr	r3, .L89+4
 1107 0034 1A68     		ldr	r2, [r3]
 1108 0036 42F48042 		orr	r2, r2, #16384
 1109 003a 1A60     		str	r2, [r3]
 150:Core/Src/main.c **** 
 1110              		.loc 1 150 3 view .LVU349
 1111 003c 1B68     		ldr	r3, [r3]
 1112 003e 03F48043 		and	r3, r3, #16384
 1113 0042 0293     		str	r3, [sp, #8]
 150:Core/Src/main.c **** 
 1114              		.loc 1 150 3 view .LVU350
 1115 0044 029B     		ldr	r3, [sp, #8]
 1116              	.LBE12:
 150:Core/Src/main.c **** 
 1117              		.loc 1 150 3 view .LVU351
 155:Core/Src/main.c ****   RCC_OscInitStruct.HSEState = RCC_HSE_ON;
 1118              		.loc 1 155 3 view .LVU352
 155:Core/Src/main.c ****   RCC_OscInitStruct.HSEState = RCC_HSE_ON;
 1119              		.loc 1 155 36 is_stmt 0 view .LVU353
 1120 0046 0123     		movs	r3, #1
 1121 0048 0893     		str	r3, [sp, #32]
 156:Core/Src/main.c ****   RCC_OscInitStruct.PLL.PLLState = RCC_PLL_ON;
 1122              		.loc 1 156 3 is_stmt 1 view .LVU354
ARM GAS  C:\Users\lukas\AppData\Local\Temp\ccFZ7lQg.s 			page 38


 156:Core/Src/main.c ****   RCC_OscInitStruct.PLL.PLLState = RCC_PLL_ON;
 1123              		.loc 1 156 30 is_stmt 0 view .LVU355
 1124 004a 4FF48033 		mov	r3, #65536
 1125 004e 0993     		str	r3, [sp, #36]
 157:Core/Src/main.c ****   RCC_OscInitStruct.PLL.PLLSource = RCC_PLLSOURCE_HSE;
 1126              		.loc 1 157 3 is_stmt 1 view .LVU356
 157:Core/Src/main.c ****   RCC_OscInitStruct.PLL.PLLSource = RCC_PLLSOURCE_HSE;
 1127              		.loc 1 157 34 is_stmt 0 view .LVU357
 1128 0050 0223     		movs	r3, #2
 1129 0052 0E93     		str	r3, [sp, #56]
 158:Core/Src/main.c ****   RCC_OscInitStruct.PLL.PLLM = 8;
 1130              		.loc 1 158 3 is_stmt 1 view .LVU358
 158:Core/Src/main.c ****   RCC_OscInitStruct.PLL.PLLM = 8;
 1131              		.loc 1 158 35 is_stmt 0 view .LVU359
 1132 0054 4FF48002 		mov	r2, #4194304
 1133 0058 0F92     		str	r2, [sp, #60]
 159:Core/Src/main.c ****   RCC_OscInitStruct.PLL.PLLN = 168;
 1134              		.loc 1 159 3 is_stmt 1 view .LVU360
 159:Core/Src/main.c ****   RCC_OscInitStruct.PLL.PLLN = 168;
 1135              		.loc 1 159 30 is_stmt 0 view .LVU361
 1136 005a 0822     		movs	r2, #8
 1137 005c 1092     		str	r2, [sp, #64]
 160:Core/Src/main.c ****   RCC_OscInitStruct.PLL.PLLP = RCC_PLLP_DIV2;
 1138              		.loc 1 160 3 is_stmt 1 view .LVU362
 160:Core/Src/main.c ****   RCC_OscInitStruct.PLL.PLLP = RCC_PLLP_DIV2;
 1139              		.loc 1 160 30 is_stmt 0 view .LVU363
 1140 005e A822     		movs	r2, #168
 1141 0060 1192     		str	r2, [sp, #68]
 161:Core/Src/main.c ****   RCC_OscInitStruct.PLL.PLLQ = 7;
 1142              		.loc 1 161 3 is_stmt 1 view .LVU364
 161:Core/Src/main.c ****   RCC_OscInitStruct.PLL.PLLQ = 7;
 1143              		.loc 1 161 30 is_stmt 0 view .LVU365
 1144 0062 1293     		str	r3, [sp, #72]
 162:Core/Src/main.c ****   if (HAL_RCC_OscConfig(&RCC_OscInitStruct) != HAL_OK)
 1145              		.loc 1 162 3 is_stmt 1 view .LVU366
 162:Core/Src/main.c ****   if (HAL_RCC_OscConfig(&RCC_OscInitStruct) != HAL_OK)
 1146              		.loc 1 162 30 is_stmt 0 view .LVU367
 1147 0064 0723     		movs	r3, #7
 1148 0066 1393     		str	r3, [sp, #76]
 163:Core/Src/main.c ****   {
 1149              		.loc 1 163 3 is_stmt 1 view .LVU368
 163:Core/Src/main.c ****   {
 1150              		.loc 1 163 7 is_stmt 0 view .LVU369
 1151 0068 08A8     		add	r0, sp, #32
 1152 006a FFF7FEFF 		bl	HAL_RCC_OscConfig
 1153              	.LVL55:
 163:Core/Src/main.c ****   {
 1154              		.loc 1 163 6 view .LVU370
 1155 006e 98B9     		cbnz	r0, .L87
 170:Core/Src/main.c ****                               |RCC_CLOCKTYPE_PCLK1|RCC_CLOCKTYPE_PCLK2;
 1156              		.loc 1 170 3 is_stmt 1 view .LVU371
 170:Core/Src/main.c ****                               |RCC_CLOCKTYPE_PCLK1|RCC_CLOCKTYPE_PCLK2;
 1157              		.loc 1 170 31 is_stmt 0 view .LVU372
 1158 0070 0F23     		movs	r3, #15
 1159 0072 0393     		str	r3, [sp, #12]
 172:Core/Src/main.c ****   RCC_ClkInitStruct.AHBCLKDivider = RCC_SYSCLK_DIV1;
 1160              		.loc 1 172 3 is_stmt 1 view .LVU373
ARM GAS  C:\Users\lukas\AppData\Local\Temp\ccFZ7lQg.s 			page 39


 172:Core/Src/main.c ****   RCC_ClkInitStruct.AHBCLKDivider = RCC_SYSCLK_DIV1;
 1161              		.loc 1 172 34 is_stmt 0 view .LVU374
 1162 0074 0223     		movs	r3, #2
 1163 0076 0493     		str	r3, [sp, #16]
 173:Core/Src/main.c ****   RCC_ClkInitStruct.APB1CLKDivider = RCC_HCLK_DIV4;
 1164              		.loc 1 173 3 is_stmt 1 view .LVU375
 173:Core/Src/main.c ****   RCC_ClkInitStruct.APB1CLKDivider = RCC_HCLK_DIV4;
 1165              		.loc 1 173 35 is_stmt 0 view .LVU376
 1166 0078 0023     		movs	r3, #0
 1167 007a 0593     		str	r3, [sp, #20]
 174:Core/Src/main.c ****   RCC_ClkInitStruct.APB2CLKDivider = RCC_HCLK_DIV2;
 1168              		.loc 1 174 3 is_stmt 1 view .LVU377
 174:Core/Src/main.c ****   RCC_ClkInitStruct.APB2CLKDivider = RCC_HCLK_DIV2;
 1169              		.loc 1 174 36 is_stmt 0 view .LVU378
 1170 007c 4FF4A053 		mov	r3, #5120
 1171 0080 0693     		str	r3, [sp, #24]
 175:Core/Src/main.c **** 
 1172              		.loc 1 175 3 is_stmt 1 view .LVU379
 175:Core/Src/main.c **** 
 1173              		.loc 1 175 36 is_stmt 0 view .LVU380
 1174 0082 4FF48053 		mov	r3, #4096
 1175 0086 0793     		str	r3, [sp, #28]
 177:Core/Src/main.c ****   {
 1176              		.loc 1 177 3 is_stmt 1 view .LVU381
 177:Core/Src/main.c ****   {
 1177              		.loc 1 177 7 is_stmt 0 view .LVU382
 1178 0088 0521     		movs	r1, #5
 1179 008a 03A8     		add	r0, sp, #12
 1180 008c FFF7FEFF 		bl	HAL_RCC_ClockConfig
 1181              	.LVL56:
 177:Core/Src/main.c ****   {
 1182              		.loc 1 177 6 view .LVU383
 1183 0090 20B9     		cbnz	r0, .L88
 181:Core/Src/main.c **** 
 1184              		.loc 1 181 1 view .LVU384
 1185 0092 15B0     		add	sp, sp, #84
 1186              	.LCFI21:
 1187              		.cfi_remember_state
 1188              		.cfi_def_cfa_offset 4
 1189              		@ sp needed
 1190 0094 5DF804FB 		ldr	pc, [sp], #4
 1191              	.L87:
 1192              	.LCFI22:
 1193              		.cfi_restore_state
 165:Core/Src/main.c ****   }
 1194              		.loc 1 165 5 is_stmt 1 view .LVU385
 1195 0098 FFF7FEFF 		bl	Error_Handler
 1196              	.LVL57:
 1197              	.L88:
 179:Core/Src/main.c ****   }
 1198              		.loc 1 179 5 view .LVU386
 1199 009c FFF7FEFF 		bl	Error_Handler
 1200              	.LVL58:
 1201              	.L90:
 1202              		.align	2
 1203              	.L89:
 1204 00a0 00380240 		.word	1073887232
ARM GAS  C:\Users\lukas\AppData\Local\Temp\ccFZ7lQg.s 			page 40


 1205 00a4 00700040 		.word	1073770496
 1206              		.cfi_endproc
 1207              	.LFE135:
 1209              		.section	.text.main,"ax",%progbits
 1210              		.align	1
 1211              		.global	main
 1212              		.syntax unified
 1213              		.thumb
 1214              		.thumb_func
 1216              	main:
 1217              	.LFB134:
  83:Core/Src/main.c ****   /* USER CODE BEGIN 1 */
 1218              		.loc 1 83 1 view -0
 1219              		.cfi_startproc
 1220              		@ args = 0, pretend = 0, frame = 0
 1221              		@ frame_needed = 0, uses_anonymous_args = 0
 1222 0000 10B5     		push	{r4, lr}
 1223              	.LCFI23:
 1224              		.cfi_def_cfa_offset 8
 1225              		.cfi_offset 4, -8
 1226              		.cfi_offset 14, -4
  91:Core/Src/main.c **** 
 1227              		.loc 1 91 3 view .LVU388
 1228 0002 FFF7FEFF 		bl	HAL_Init
 1229              	.LVL59:
  98:Core/Src/main.c **** 
 1230              		.loc 1 98 3 view .LVU389
 1231 0006 FFF7FEFF 		bl	SystemClock_Config
 1232              	.LVL60:
 105:Core/Src/main.c ****   MX_I2C1_Init();
 1233              		.loc 1 105 3 view .LVU390
 1234 000a FFF7FEFF 		bl	MX_GPIO_Init
 1235              	.LVL61:
 106:Core/Src/main.c ****   MX_SDIO_SD_Init();
 1236              		.loc 1 106 3 view .LVU391
 1237 000e FFF7FEFF 		bl	MX_I2C1_Init
 1238              	.LVL62:
 107:Core/Src/main.c ****   MX_TIM2_Init();
 1239              		.loc 1 107 3 view .LVU392
 1240 0012 FFF7FEFF 		bl	MX_SDIO_SD_Init
 1241              	.LVL63:
 108:Core/Src/main.c ****   MX_TIM3_Init();
 1242              		.loc 1 108 3 view .LVU393
 1243 0016 FFF7FEFF 		bl	MX_TIM2_Init
 1244              	.LVL64:
 109:Core/Src/main.c ****   MX_TIM5_Init();
 1245              		.loc 1 109 3 view .LVU394
 1246 001a FFF7FEFF 		bl	MX_TIM3_Init
 1247              	.LVL65:
 110:Core/Src/main.c ****   MX_USART1_UART_Init();
 1248              		.loc 1 110 3 view .LVU395
 1249 001e FFF7FEFF 		bl	MX_TIM5_Init
 1250              	.LVL66:
 111:Core/Src/main.c ****   MX_USART3_UART_Init();
 1251              		.loc 1 111 3 view .LVU396
 1252 0022 FFF7FEFF 		bl	MX_USART1_UART_Init
 1253              	.LVL67:
ARM GAS  C:\Users\lukas\AppData\Local\Temp\ccFZ7lQg.s 			page 41


 112:Core/Src/main.c ****   MX_USB_DEVICE_Init();
 1254              		.loc 1 112 3 view .LVU397
 1255 0026 FFF7FEFF 		bl	MX_USART3_UART_Init
 1256              	.LVL68:
 113:Core/Src/main.c ****   /* USER CODE BEGIN 2 */
 1257              		.loc 1 113 3 view .LVU398
 1258 002a FFF7FEFF 		bl	MX_USB_DEVICE_Init
 1259              	.LVL69:
 115:Core/Src/main.c ****   uint8_t intensity = 0;
 1260              		.loc 1 115 3 view .LVU399
 1261 002e 0021     		movs	r1, #0
 1262 0030 0948     		ldr	r0, .L96
 1263 0032 FFF7FEFF 		bl	HAL_TIM_PWM_Start
 1264              	.LVL70:
 116:Core/Src/main.c ****   
 1265              		.loc 1 116 3 view .LVU400
 116:Core/Src/main.c ****   
 1266              		.loc 1 116 11 is_stmt 0 view .LVU401
 1267 0036 0024     		movs	r4, #0
 1268 0038 02E0     		b	.L93
 1269              	.LVL71:
 1270              	.L92:
 132:Core/Src/main.c ****     /* USER CODE BEGIN 3 */
 1271              		.loc 1 132 5 is_stmt 1 view .LVU402
 1272 003a 6420     		movs	r0, #100
 1273 003c FFF7FEFF 		bl	HAL_Delay
 1274              	.LVL72:
 122:Core/Src/main.c ****   {
 1275              		.loc 1 122 9 view .LVU403
 1276              	.L93:
 122:Core/Src/main.c ****   {
 1277              		.loc 1 122 3 view .LVU404
 125:Core/Src/main.c **** 
 1278              		.loc 1 125 5 view .LVU405
 125:Core/Src/main.c **** 
 1279              		.loc 1 125 10 is_stmt 0 view .LVU406
 1280 0040 054B     		ldr	r3, .L96
 1281 0042 1B68     		ldr	r3, [r3]
 125:Core/Src/main.c **** 
 1282              		.loc 1 125 32 view .LVU407
 1283 0044 C4F16402 		rsb	r2, r4, #100
 125:Core/Src/main.c **** 
 1284              		.loc 1 125 26 view .LVU408
 1285 0048 5A63     		str	r2, [r3, #52]
 127:Core/Src/main.c ****     if (intensity > 100) {
 1286              		.loc 1 127 5 is_stmt 1 view .LVU409
 127:Core/Src/main.c ****     if (intensity > 100) {
 1287              		.loc 1 127 15 is_stmt 0 view .LVU410
 1288 004a 0534     		adds	r4, r4, #5
 1289              	.LVL73:
 127:Core/Src/main.c ****     if (intensity > 100) {
 1290              		.loc 1 127 15 view .LVU411
 1291 004c E4B2     		uxtb	r4, r4
 1292              	.LVL74:
 128:Core/Src/main.c ****       intensity = 0;
 1293              		.loc 1 128 5 is_stmt 1 view .LVU412
 128:Core/Src/main.c ****       intensity = 0;
ARM GAS  C:\Users\lukas\AppData\Local\Temp\ccFZ7lQg.s 			page 42


 1294              		.loc 1 128 8 is_stmt 0 view .LVU413
 1295 004e 642C     		cmp	r4, #100
 1296 0050 F3D9     		bls	.L92
 129:Core/Src/main.c ****     }
 1297              		.loc 1 129 17 view .LVU414
 1298 0052 0024     		movs	r4, #0
 1299              	.LVL75:
 129:Core/Src/main.c ****     }
 1300              		.loc 1 129 17 view .LVU415
 1301 0054 F1E7     		b	.L92
 1302              	.L97:
 1303 0056 00BF     		.align	2
 1304              	.L96:
 1305 0058 00000000 		.word	.LANCHOR3
 1306              		.cfi_endproc
 1307              	.LFE134:
 1309              		.global	huart3
 1310              		.global	huart1
 1311              		.global	htim5
 1312              		.global	htim3
 1313              		.global	htim2
 1314              		.global	hsd
 1315              		.global	hi2c1
 1316              		.section	.bss.hi2c1,"aw",%nobits
 1317              		.align	2
 1318              		.set	.LANCHOR0,. + 0
 1321              	hi2c1:
 1322 0000 00000000 		.space	84
 1322      00000000 
 1322      00000000 
 1322      00000000 
 1322      00000000 
 1323              		.section	.bss.hsd,"aw",%nobits
 1324              		.align	2
 1325              		.set	.LANCHOR1,. + 0
 1328              	hsd:
 1329 0000 00000000 		.space	132
 1329      00000000 
 1329      00000000 
 1329      00000000 
 1329      00000000 
 1330              		.section	.bss.htim2,"aw",%nobits
 1331              		.align	2
 1332              		.set	.LANCHOR2,. + 0
 1335              	htim2:
 1336 0000 00000000 		.space	72
 1336      00000000 
 1336      00000000 
 1336      00000000 
 1336      00000000 
 1337              		.section	.bss.htim3,"aw",%nobits
 1338              		.align	2
 1339              		.set	.LANCHOR3,. + 0
 1342              	htim3:
 1343 0000 00000000 		.space	72
 1343      00000000 
 1343      00000000 
ARM GAS  C:\Users\lukas\AppData\Local\Temp\ccFZ7lQg.s 			page 43


 1343      00000000 
 1343      00000000 
 1344              		.section	.bss.htim5,"aw",%nobits
 1345              		.align	2
 1346              		.set	.LANCHOR4,. + 0
 1349              	htim5:
 1350 0000 00000000 		.space	72
 1350      00000000 
 1350      00000000 
 1350      00000000 
 1350      00000000 
 1351              		.section	.bss.huart1,"aw",%nobits
 1352              		.align	2
 1353              		.set	.LANCHOR5,. + 0
 1356              	huart1:
 1357 0000 00000000 		.space	68
 1357      00000000 
 1357      00000000 
 1357      00000000 
 1357      00000000 
 1358              		.section	.bss.huart3,"aw",%nobits
 1359              		.align	2
 1360              		.set	.LANCHOR6,. + 0
 1363              	huart3:
 1364 0000 00000000 		.space	68
 1364      00000000 
 1364      00000000 
 1364      00000000 
 1364      00000000 
 1365              		.text
 1366              	.Letext0:
 1367              		.file 3 "c:\\users\\lukas\\source\\tools\\gcc-arm-none-eabi-10.3-2021.10-win32\\arm-none-eabi\\inc
 1368              		.file 4 "c:\\users\\lukas\\source\\tools\\gcc-arm-none-eabi-10.3-2021.10-win32\\arm-none-eabi\\inc
 1369              		.file 5 "Drivers/CMSIS/Device/ST/STM32F4xx/Include/stm32f405xx.h"
 1370              		.file 6 "Drivers/STM32F4xx_HAL_Driver/Inc/stm32f4xx_hal_def.h"
 1371              		.file 7 "Drivers/STM32F4xx_HAL_Driver/Inc/stm32f4xx_hal_rcc_ex.h"
 1372              		.file 8 "Drivers/STM32F4xx_HAL_Driver/Inc/stm32f4xx_hal_rcc.h"
 1373              		.file 9 "Drivers/STM32F4xx_HAL_Driver/Inc/stm32f4xx_hal_gpio.h"
 1374              		.file 10 "Drivers/STM32F4xx_HAL_Driver/Inc/stm32f4xx_hal_dma.h"
 1375              		.file 11 "Drivers/STM32F4xx_HAL_Driver/Inc/stm32f4xx_hal_i2c.h"
 1376              		.file 12 "Drivers/STM32F4xx_HAL_Driver/Inc/stm32f4xx_ll_sdmmc.h"
 1377              		.file 13 "Drivers/STM32F4xx_HAL_Driver/Inc/stm32f4xx_hal_sd.h"
 1378              		.file 14 "Drivers/STM32F4xx_HAL_Driver/Inc/stm32f4xx_hal_tim.h"
 1379              		.file 15 "Drivers/STM32F4xx_HAL_Driver/Inc/stm32f4xx_hal_uart.h"
 1380              		.file 16 "Drivers/STM32F4xx_HAL_Driver/Inc/stm32f4xx_hal_tim_ex.h"
 1381              		.file 17 "Core/Inc/main.h"
 1382              		.file 18 "Drivers/STM32F4xx_HAL_Driver/Inc/stm32f4xx_hal.h"
 1383              		.file 19 "USB_DEVICE/App/usb_device.h"
 1384              		.file 20 "<built-in>"
ARM GAS  C:\Users\lukas\AppData\Local\Temp\ccFZ7lQg.s 			page 44

